ARM GAS  C:\Users\晚风\AppData\Local\Temp\ccf0JLsC.s 			page 1


   1              		.cpu cortex-m4
   2              		.arch armv7e-m
   3              		.fpu fpv4-sp-d16
   4              		.eabi_attribute 27, 1
   5              		.eabi_attribute 28, 1
   6              		.eabi_attribute 20, 1
   7              		.eabi_attribute 21, 1
   8              		.eabi_attribute 23, 3
   9              		.eabi_attribute 24, 1
  10              		.eabi_attribute 25, 1
  11              		.eabi_attribute 26, 1
  12              		.eabi_attribute 30, 1
  13              		.eabi_attribute 34, 1
  14              		.eabi_attribute 18, 4
  15              		.file	"spi.c"
  16              		.text
  17              	.Ltext0:
  18              		.cfi_sections	.debug_frame
  19              		.file 1 "Core/Src/spi.c"
  20              		.section	.text.MX_SPI1_Init,"ax",%progbits
  21              		.align	1
  22              		.global	MX_SPI1_Init
  23              		.syntax unified
  24              		.thumb
  25              		.thumb_func
  27              	MX_SPI1_Init:
  28              	.LFB239:
   1:Core/Src/spi.c **** /* USER CODE BEGIN Header */
   2:Core/Src/spi.c **** /**
   3:Core/Src/spi.c ****   ******************************************************************************
   4:Core/Src/spi.c ****   * @file    spi.c
   5:Core/Src/spi.c ****   * @brief   This file provides code for the configuration
   6:Core/Src/spi.c ****   *          of the SPI instances.
   7:Core/Src/spi.c ****   ******************************************************************************
   8:Core/Src/spi.c ****   * @attention
   9:Core/Src/spi.c ****   *
  10:Core/Src/spi.c ****   * Copyright (c) 2024 STMicroelectronics.
  11:Core/Src/spi.c ****   * All rights reserved.
  12:Core/Src/spi.c ****   *
  13:Core/Src/spi.c ****   * This software is licensed under terms that can be found in the LICENSE file
  14:Core/Src/spi.c ****   * in the root directory of this software component.
  15:Core/Src/spi.c ****   * If no LICENSE file comes with this software, it is provided AS-IS.
  16:Core/Src/spi.c ****   *
  17:Core/Src/spi.c ****   ******************************************************************************
  18:Core/Src/spi.c ****   */
  19:Core/Src/spi.c **** /* USER CODE END Header */
  20:Core/Src/spi.c **** /* Includes ------------------------------------------------------------------*/
  21:Core/Src/spi.c **** #include "spi.h"
  22:Core/Src/spi.c **** 
  23:Core/Src/spi.c **** /* USER CODE BEGIN 0 */
  24:Core/Src/spi.c **** 
  25:Core/Src/spi.c **** /* USER CODE END 0 */
  26:Core/Src/spi.c **** 
  27:Core/Src/spi.c **** SPI_HandleTypeDef hspi1;
  28:Core/Src/spi.c **** DMA_HandleTypeDef hdma_spi1_rx;
  29:Core/Src/spi.c **** DMA_HandleTypeDef hdma_spi1_tx;
  30:Core/Src/spi.c **** 
ARM GAS  C:\Users\晚风\AppData\Local\Temp\ccf0JLsC.s 			page 2


  31:Core/Src/spi.c **** /* SPI1 init function */
  32:Core/Src/spi.c **** void MX_SPI1_Init(void)
  33:Core/Src/spi.c **** {
  29              		.loc 1 33 1 view -0
  30              		.cfi_startproc
  31              		@ args = 0, pretend = 0, frame = 0
  32              		@ frame_needed = 0, uses_anonymous_args = 0
  33 0000 08B5     		push	{r3, lr}
  34              	.LCFI0:
  35              		.cfi_def_cfa_offset 8
  36              		.cfi_offset 3, -8
  37              		.cfi_offset 14, -4
  34:Core/Src/spi.c **** 
  35:Core/Src/spi.c ****   /* USER CODE BEGIN SPI1_Init 0 */
  36:Core/Src/spi.c **** 
  37:Core/Src/spi.c ****   /* USER CODE END SPI1_Init 0 */
  38:Core/Src/spi.c **** 
  39:Core/Src/spi.c ****   /* USER CODE BEGIN SPI1_Init 1 */
  40:Core/Src/spi.c **** 
  41:Core/Src/spi.c ****   /* USER CODE END SPI1_Init 1 */
  42:Core/Src/spi.c ****   hspi1.Instance = SPI1;
  38              		.loc 1 42 3 view .LVU1
  39              		.loc 1 42 18 is_stmt 0 view .LVU2
  40 0002 0E48     		ldr	r0, .L5
  41 0004 0E4B     		ldr	r3, .L5+4
  42 0006 0360     		str	r3, [r0]
  43:Core/Src/spi.c ****   hspi1.Init.Mode = SPI_MODE_MASTER;
  43              		.loc 1 43 3 is_stmt 1 view .LVU3
  44              		.loc 1 43 19 is_stmt 0 view .LVU4
  45 0008 4FF48273 		mov	r3, #260
  46 000c 4360     		str	r3, [r0, #4]
  44:Core/Src/spi.c ****   hspi1.Init.Direction = SPI_DIRECTION_2LINES;
  47              		.loc 1 44 3 is_stmt 1 view .LVU5
  48              		.loc 1 44 24 is_stmt 0 view .LVU6
  49 000e 0023     		movs	r3, #0
  50 0010 8360     		str	r3, [r0, #8]
  45:Core/Src/spi.c ****   hspi1.Init.DataSize = SPI_DATASIZE_8BIT;
  51              		.loc 1 45 3 is_stmt 1 view .LVU7
  52              		.loc 1 45 23 is_stmt 0 view .LVU8
  53 0012 C360     		str	r3, [r0, #12]
  46:Core/Src/spi.c ****   hspi1.Init.CLKPolarity = SPI_POLARITY_LOW;
  54              		.loc 1 46 3 is_stmt 1 view .LVU9
  55              		.loc 1 46 26 is_stmt 0 view .LVU10
  56 0014 0361     		str	r3, [r0, #16]
  47:Core/Src/spi.c ****   hspi1.Init.CLKPhase = SPI_PHASE_1EDGE;
  57              		.loc 1 47 3 is_stmt 1 view .LVU11
  58              		.loc 1 47 23 is_stmt 0 view .LVU12
  59 0016 4361     		str	r3, [r0, #20]
  48:Core/Src/spi.c ****   hspi1.Init.NSS = SPI_NSS_SOFT;
  60              		.loc 1 48 3 is_stmt 1 view .LVU13
  61              		.loc 1 48 18 is_stmt 0 view .LVU14
  62 0018 4FF40072 		mov	r2, #512
  63 001c 8261     		str	r2, [r0, #24]
  49:Core/Src/spi.c ****   hspi1.Init.BaudRatePrescaler = SPI_BAUDRATEPRESCALER_8;
  64              		.loc 1 49 3 is_stmt 1 view .LVU15
  65              		.loc 1 49 32 is_stmt 0 view .LVU16
  66 001e 1022     		movs	r2, #16
ARM GAS  C:\Users\晚风\AppData\Local\Temp\ccf0JLsC.s 			page 3


  67 0020 C261     		str	r2, [r0, #28]
  50:Core/Src/spi.c ****   hspi1.Init.FirstBit = SPI_FIRSTBIT_MSB;
  68              		.loc 1 50 3 is_stmt 1 view .LVU17
  69              		.loc 1 50 23 is_stmt 0 view .LVU18
  70 0022 0362     		str	r3, [r0, #32]
  51:Core/Src/spi.c ****   hspi1.Init.TIMode = SPI_TIMODE_DISABLE;
  71              		.loc 1 51 3 is_stmt 1 view .LVU19
  72              		.loc 1 51 21 is_stmt 0 view .LVU20
  73 0024 4362     		str	r3, [r0, #36]
  52:Core/Src/spi.c ****   hspi1.Init.CRCCalculation = SPI_CRCCALCULATION_DISABLE;
  74              		.loc 1 52 3 is_stmt 1 view .LVU21
  75              		.loc 1 52 29 is_stmt 0 view .LVU22
  76 0026 8362     		str	r3, [r0, #40]
  53:Core/Src/spi.c ****   hspi1.Init.CRCPolynomial = 10;
  77              		.loc 1 53 3 is_stmt 1 view .LVU23
  78              		.loc 1 53 28 is_stmt 0 view .LVU24
  79 0028 0A23     		movs	r3, #10
  80 002a C362     		str	r3, [r0, #44]
  54:Core/Src/spi.c ****   if (HAL_SPI_Init(&hspi1) != HAL_OK)
  81              		.loc 1 54 3 is_stmt 1 view .LVU25
  82              		.loc 1 54 7 is_stmt 0 view .LVU26
  83 002c FFF7FEFF 		bl	HAL_SPI_Init
  84              	.LVL0:
  85              		.loc 1 54 6 discriminator 1 view .LVU27
  86 0030 00B9     		cbnz	r0, .L4
  87              	.L1:
  55:Core/Src/spi.c ****   {
  56:Core/Src/spi.c ****     Error_Handler();
  57:Core/Src/spi.c ****   }
  58:Core/Src/spi.c ****   /* USER CODE BEGIN SPI1_Init 2 */
  59:Core/Src/spi.c **** 
  60:Core/Src/spi.c ****   /* USER CODE END SPI1_Init 2 */
  61:Core/Src/spi.c **** 
  62:Core/Src/spi.c **** }
  88              		.loc 1 62 1 view .LVU28
  89 0032 08BD     		pop	{r3, pc}
  90              	.L4:
  56:Core/Src/spi.c ****   }
  91              		.loc 1 56 5 is_stmt 1 view .LVU29
  92 0034 FFF7FEFF 		bl	Error_Handler
  93              	.LVL1:
  94              		.loc 1 62 1 is_stmt 0 view .LVU30
  95 0038 FBE7     		b	.L1
  96              	.L6:
  97 003a 00BF     		.align	2
  98              	.L5:
  99 003c 00000000 		.word	hspi1
 100 0040 00300140 		.word	1073819648
 101              		.cfi_endproc
 102              	.LFE239:
 104              		.section	.text.HAL_SPI_MspInit,"ax",%progbits
 105              		.align	1
 106              		.global	HAL_SPI_MspInit
 107              		.syntax unified
 108              		.thumb
 109              		.thumb_func
 111              	HAL_SPI_MspInit:
ARM GAS  C:\Users\晚风\AppData\Local\Temp\ccf0JLsC.s 			page 4


 112              	.LVL2:
 113              	.LFB240:
  63:Core/Src/spi.c **** 
  64:Core/Src/spi.c **** void HAL_SPI_MspInit(SPI_HandleTypeDef* spiHandle)
  65:Core/Src/spi.c **** {
 114              		.loc 1 65 1 is_stmt 1 view -0
 115              		.cfi_startproc
 116              		@ args = 0, pretend = 0, frame = 32
 117              		@ frame_needed = 0, uses_anonymous_args = 0
 118              		.loc 1 65 1 is_stmt 0 view .LVU32
 119 0000 2DE9F041 		push	{r4, r5, r6, r7, r8, lr}
 120              	.LCFI1:
 121              		.cfi_def_cfa_offset 24
 122              		.cfi_offset 4, -24
 123              		.cfi_offset 5, -20
 124              		.cfi_offset 6, -16
 125              		.cfi_offset 7, -12
 126              		.cfi_offset 8, -8
 127              		.cfi_offset 14, -4
 128 0004 88B0     		sub	sp, sp, #32
 129              	.LCFI2:
 130              		.cfi_def_cfa_offset 56
  66:Core/Src/spi.c **** 
  67:Core/Src/spi.c ****   GPIO_InitTypeDef GPIO_InitStruct = {0};
 131              		.loc 1 67 3 is_stmt 1 view .LVU33
 132              		.loc 1 67 20 is_stmt 0 view .LVU34
 133 0006 0023     		movs	r3, #0
 134 0008 0393     		str	r3, [sp, #12]
 135 000a 0493     		str	r3, [sp, #16]
 136 000c 0593     		str	r3, [sp, #20]
 137 000e 0693     		str	r3, [sp, #24]
 138 0010 0793     		str	r3, [sp, #28]
  68:Core/Src/spi.c ****   if(spiHandle->Instance==SPI1)
 139              		.loc 1 68 3 is_stmt 1 view .LVU35
 140              		.loc 1 68 15 is_stmt 0 view .LVU36
 141 0012 0268     		ldr	r2, [r0]
 142              		.loc 1 68 5 view .LVU37
 143 0014 3B4B     		ldr	r3, .L15
 144 0016 9A42     		cmp	r2, r3
 145 0018 02D0     		beq	.L12
 146              	.LVL3:
 147              	.L7:
  69:Core/Src/spi.c ****   {
  70:Core/Src/spi.c ****   /* USER CODE BEGIN SPI1_MspInit 0 */
  71:Core/Src/spi.c **** 
  72:Core/Src/spi.c ****   /* USER CODE END SPI1_MspInit 0 */
  73:Core/Src/spi.c ****     /* SPI1 clock enable */
  74:Core/Src/spi.c ****     __HAL_RCC_SPI1_CLK_ENABLE();
  75:Core/Src/spi.c **** 
  76:Core/Src/spi.c ****     __HAL_RCC_GPIOB_CLK_ENABLE();
  77:Core/Src/spi.c ****     __HAL_RCC_GPIOA_CLK_ENABLE();
  78:Core/Src/spi.c ****     /**SPI1 GPIO Configuration
  79:Core/Src/spi.c ****     PB4     ------> SPI1_MISO
  80:Core/Src/spi.c ****     PB3     ------> SPI1_SCK
  81:Core/Src/spi.c ****     PA7     ------> SPI1_MOSI
  82:Core/Src/spi.c ****     */
  83:Core/Src/spi.c ****     GPIO_InitStruct.Pin = GPIO_PIN_4|GPIO_PIN_3;
ARM GAS  C:\Users\晚风\AppData\Local\Temp\ccf0JLsC.s 			page 5


  84:Core/Src/spi.c ****     GPIO_InitStruct.Mode = GPIO_MODE_AF_PP;
  85:Core/Src/spi.c ****     GPIO_InitStruct.Pull = GPIO_NOPULL;
  86:Core/Src/spi.c ****     GPIO_InitStruct.Speed = GPIO_SPEED_FREQ_VERY_HIGH;
  87:Core/Src/spi.c ****     GPIO_InitStruct.Alternate = GPIO_AF5_SPI1;
  88:Core/Src/spi.c ****     HAL_GPIO_Init(GPIOB, &GPIO_InitStruct);
  89:Core/Src/spi.c **** 
  90:Core/Src/spi.c ****     GPIO_InitStruct.Pin = GPIO_PIN_7;
  91:Core/Src/spi.c ****     GPIO_InitStruct.Mode = GPIO_MODE_AF_PP;
  92:Core/Src/spi.c ****     GPIO_InitStruct.Pull = GPIO_NOPULL;
  93:Core/Src/spi.c ****     GPIO_InitStruct.Speed = GPIO_SPEED_FREQ_VERY_HIGH;
  94:Core/Src/spi.c ****     GPIO_InitStruct.Alternate = GPIO_AF5_SPI1;
  95:Core/Src/spi.c ****     HAL_GPIO_Init(GPIOA, &GPIO_InitStruct);
  96:Core/Src/spi.c **** 
  97:Core/Src/spi.c ****     /* SPI1 DMA Init */
  98:Core/Src/spi.c ****     /* SPI1_RX Init */
  99:Core/Src/spi.c ****     hdma_spi1_rx.Instance = DMA2_Stream2;
 100:Core/Src/spi.c ****     hdma_spi1_rx.Init.Channel = DMA_CHANNEL_3;
 101:Core/Src/spi.c ****     hdma_spi1_rx.Init.Direction = DMA_PERIPH_TO_MEMORY;
 102:Core/Src/spi.c ****     hdma_spi1_rx.Init.PeriphInc = DMA_PINC_DISABLE;
 103:Core/Src/spi.c ****     hdma_spi1_rx.Init.MemInc = DMA_MINC_ENABLE;
 104:Core/Src/spi.c ****     hdma_spi1_rx.Init.PeriphDataAlignment = DMA_PDATAALIGN_BYTE;
 105:Core/Src/spi.c ****     hdma_spi1_rx.Init.MemDataAlignment = DMA_MDATAALIGN_BYTE;
 106:Core/Src/spi.c ****     hdma_spi1_rx.Init.Mode = DMA_NORMAL;
 107:Core/Src/spi.c ****     hdma_spi1_rx.Init.Priority = DMA_PRIORITY_VERY_HIGH;
 108:Core/Src/spi.c ****     hdma_spi1_rx.Init.FIFOMode = DMA_FIFOMODE_DISABLE;
 109:Core/Src/spi.c ****     if (HAL_DMA_Init(&hdma_spi1_rx) != HAL_OK)
 110:Core/Src/spi.c ****     {
 111:Core/Src/spi.c ****       Error_Handler();
 112:Core/Src/spi.c ****     }
 113:Core/Src/spi.c **** 
 114:Core/Src/spi.c ****     __HAL_LINKDMA(spiHandle,hdmarx,hdma_spi1_rx);
 115:Core/Src/spi.c **** 
 116:Core/Src/spi.c ****     /* SPI1_TX Init */
 117:Core/Src/spi.c ****     hdma_spi1_tx.Instance = DMA2_Stream3;
 118:Core/Src/spi.c ****     hdma_spi1_tx.Init.Channel = DMA_CHANNEL_3;
 119:Core/Src/spi.c ****     hdma_spi1_tx.Init.Direction = DMA_MEMORY_TO_PERIPH;
 120:Core/Src/spi.c ****     hdma_spi1_tx.Init.PeriphInc = DMA_PINC_DISABLE;
 121:Core/Src/spi.c ****     hdma_spi1_tx.Init.MemInc = DMA_MINC_ENABLE;
 122:Core/Src/spi.c ****     hdma_spi1_tx.Init.PeriphDataAlignment = DMA_PDATAALIGN_BYTE;
 123:Core/Src/spi.c ****     hdma_spi1_tx.Init.MemDataAlignment = DMA_MDATAALIGN_BYTE;
 124:Core/Src/spi.c ****     hdma_spi1_tx.Init.Mode = DMA_NORMAL;
 125:Core/Src/spi.c ****     hdma_spi1_tx.Init.Priority = DMA_PRIORITY_LOW;
 126:Core/Src/spi.c ****     hdma_spi1_tx.Init.FIFOMode = DMA_FIFOMODE_DISABLE;
 127:Core/Src/spi.c ****     if (HAL_DMA_Init(&hdma_spi1_tx) != HAL_OK)
 128:Core/Src/spi.c ****     {
 129:Core/Src/spi.c ****       Error_Handler();
 130:Core/Src/spi.c ****     }
 131:Core/Src/spi.c **** 
 132:Core/Src/spi.c ****     __HAL_LINKDMA(spiHandle,hdmatx,hdma_spi1_tx);
 133:Core/Src/spi.c **** 
 134:Core/Src/spi.c ****   /* USER CODE BEGIN SPI1_MspInit 1 */
 135:Core/Src/spi.c **** 
 136:Core/Src/spi.c ****   /* USER CODE END SPI1_MspInit 1 */
 137:Core/Src/spi.c ****   }
 138:Core/Src/spi.c **** }
 148              		.loc 1 138 1 view .LVU38
 149 001a 08B0     		add	sp, sp, #32
ARM GAS  C:\Users\晚风\AppData\Local\Temp\ccf0JLsC.s 			page 6


 150              	.LCFI3:
 151              		.cfi_remember_state
 152              		.cfi_def_cfa_offset 24
 153              		@ sp needed
 154 001c BDE8F081 		pop	{r4, r5, r6, r7, r8, pc}
 155              	.LVL4:
 156              	.L12:
 157              	.LCFI4:
 158              		.cfi_restore_state
 159              		.loc 1 138 1 view .LVU39
 160 0020 0446     		mov	r4, r0
  74:Core/Src/spi.c **** 
 161              		.loc 1 74 5 is_stmt 1 view .LVU40
 162              	.LBB2:
  74:Core/Src/spi.c **** 
 163              		.loc 1 74 5 view .LVU41
 164 0022 0025     		movs	r5, #0
 165 0024 0095     		str	r5, [sp]
  74:Core/Src/spi.c **** 
 166              		.loc 1 74 5 view .LVU42
 167 0026 03F58433 		add	r3, r3, #67584
 168 002a 5A6C     		ldr	r2, [r3, #68]
 169 002c 42F48052 		orr	r2, r2, #4096
 170 0030 5A64     		str	r2, [r3, #68]
  74:Core/Src/spi.c **** 
 171              		.loc 1 74 5 view .LVU43
 172 0032 5A6C     		ldr	r2, [r3, #68]
 173 0034 02F48052 		and	r2, r2, #4096
 174 0038 0092     		str	r2, [sp]
  74:Core/Src/spi.c **** 
 175              		.loc 1 74 5 view .LVU44
 176 003a 009A     		ldr	r2, [sp]
 177              	.LBE2:
  74:Core/Src/spi.c **** 
 178              		.loc 1 74 5 view .LVU45
  76:Core/Src/spi.c ****     __HAL_RCC_GPIOA_CLK_ENABLE();
 179              		.loc 1 76 5 view .LVU46
 180              	.LBB3:
  76:Core/Src/spi.c ****     __HAL_RCC_GPIOA_CLK_ENABLE();
 181              		.loc 1 76 5 view .LVU47
 182 003c 0195     		str	r5, [sp, #4]
  76:Core/Src/spi.c ****     __HAL_RCC_GPIOA_CLK_ENABLE();
 183              		.loc 1 76 5 view .LVU48
 184 003e 1A6B     		ldr	r2, [r3, #48]
 185 0040 42F00202 		orr	r2, r2, #2
 186 0044 1A63     		str	r2, [r3, #48]
  76:Core/Src/spi.c ****     __HAL_RCC_GPIOA_CLK_ENABLE();
 187              		.loc 1 76 5 view .LVU49
 188 0046 1A6B     		ldr	r2, [r3, #48]
 189 0048 02F00202 		and	r2, r2, #2
 190 004c 0192     		str	r2, [sp, #4]
  76:Core/Src/spi.c ****     __HAL_RCC_GPIOA_CLK_ENABLE();
 191              		.loc 1 76 5 view .LVU50
 192 004e 019A     		ldr	r2, [sp, #4]
 193              	.LBE3:
  76:Core/Src/spi.c ****     __HAL_RCC_GPIOA_CLK_ENABLE();
 194              		.loc 1 76 5 view .LVU51
ARM GAS  C:\Users\晚风\AppData\Local\Temp\ccf0JLsC.s 			page 7


  77:Core/Src/spi.c ****     /**SPI1 GPIO Configuration
 195              		.loc 1 77 5 view .LVU52
 196              	.LBB4:
  77:Core/Src/spi.c ****     /**SPI1 GPIO Configuration
 197              		.loc 1 77 5 view .LVU53
 198 0050 0295     		str	r5, [sp, #8]
  77:Core/Src/spi.c ****     /**SPI1 GPIO Configuration
 199              		.loc 1 77 5 view .LVU54
 200 0052 1A6B     		ldr	r2, [r3, #48]
 201 0054 42F00102 		orr	r2, r2, #1
 202 0058 1A63     		str	r2, [r3, #48]
  77:Core/Src/spi.c ****     /**SPI1 GPIO Configuration
 203              		.loc 1 77 5 view .LVU55
 204 005a 1B6B     		ldr	r3, [r3, #48]
 205 005c 03F00103 		and	r3, r3, #1
 206 0060 0293     		str	r3, [sp, #8]
  77:Core/Src/spi.c ****     /**SPI1 GPIO Configuration
 207              		.loc 1 77 5 view .LVU56
 208 0062 029B     		ldr	r3, [sp, #8]
 209              	.LBE4:
  77:Core/Src/spi.c ****     /**SPI1 GPIO Configuration
 210              		.loc 1 77 5 view .LVU57
  83:Core/Src/spi.c ****     GPIO_InitStruct.Mode = GPIO_MODE_AF_PP;
 211              		.loc 1 83 5 view .LVU58
  83:Core/Src/spi.c ****     GPIO_InitStruct.Mode = GPIO_MODE_AF_PP;
 212              		.loc 1 83 25 is_stmt 0 view .LVU59
 213 0064 1823     		movs	r3, #24
 214 0066 0393     		str	r3, [sp, #12]
  84:Core/Src/spi.c ****     GPIO_InitStruct.Pull = GPIO_NOPULL;
 215              		.loc 1 84 5 is_stmt 1 view .LVU60
  84:Core/Src/spi.c ****     GPIO_InitStruct.Pull = GPIO_NOPULL;
 216              		.loc 1 84 26 is_stmt 0 view .LVU61
 217 0068 4FF00208 		mov	r8, #2
 218 006c CDF81080 		str	r8, [sp, #16]
  85:Core/Src/spi.c ****     GPIO_InitStruct.Speed = GPIO_SPEED_FREQ_VERY_HIGH;
 219              		.loc 1 85 5 is_stmt 1 view .LVU62
  86:Core/Src/spi.c ****     GPIO_InitStruct.Alternate = GPIO_AF5_SPI1;
 220              		.loc 1 86 5 view .LVU63
  86:Core/Src/spi.c ****     GPIO_InitStruct.Alternate = GPIO_AF5_SPI1;
 221              		.loc 1 86 27 is_stmt 0 view .LVU64
 222 0070 0327     		movs	r7, #3
 223 0072 0697     		str	r7, [sp, #24]
  87:Core/Src/spi.c ****     HAL_GPIO_Init(GPIOB, &GPIO_InitStruct);
 224              		.loc 1 87 5 is_stmt 1 view .LVU65
  87:Core/Src/spi.c ****     HAL_GPIO_Init(GPIOB, &GPIO_InitStruct);
 225              		.loc 1 87 31 is_stmt 0 view .LVU66
 226 0074 0526     		movs	r6, #5
 227 0076 0796     		str	r6, [sp, #28]
  88:Core/Src/spi.c **** 
 228              		.loc 1 88 5 is_stmt 1 view .LVU67
 229 0078 03A9     		add	r1, sp, #12
 230 007a 2348     		ldr	r0, .L15+4
 231              	.LVL5:
  88:Core/Src/spi.c **** 
 232              		.loc 1 88 5 is_stmt 0 view .LVU68
 233 007c FFF7FEFF 		bl	HAL_GPIO_Init
 234              	.LVL6:
ARM GAS  C:\Users\晚风\AppData\Local\Temp\ccf0JLsC.s 			page 8


  90:Core/Src/spi.c ****     GPIO_InitStruct.Mode = GPIO_MODE_AF_PP;
 235              		.loc 1 90 5 is_stmt 1 view .LVU69
  90:Core/Src/spi.c ****     GPIO_InitStruct.Mode = GPIO_MODE_AF_PP;
 236              		.loc 1 90 25 is_stmt 0 view .LVU70
 237 0080 8023     		movs	r3, #128
 238 0082 0393     		str	r3, [sp, #12]
  91:Core/Src/spi.c ****     GPIO_InitStruct.Pull = GPIO_NOPULL;
 239              		.loc 1 91 5 is_stmt 1 view .LVU71
  91:Core/Src/spi.c ****     GPIO_InitStruct.Pull = GPIO_NOPULL;
 240              		.loc 1 91 26 is_stmt 0 view .LVU72
 241 0084 CDF81080 		str	r8, [sp, #16]
  92:Core/Src/spi.c ****     GPIO_InitStruct.Speed = GPIO_SPEED_FREQ_VERY_HIGH;
 242              		.loc 1 92 5 is_stmt 1 view .LVU73
  92:Core/Src/spi.c ****     GPIO_InitStruct.Speed = GPIO_SPEED_FREQ_VERY_HIGH;
 243              		.loc 1 92 26 is_stmt 0 view .LVU74
 244 0088 0595     		str	r5, [sp, #20]
  93:Core/Src/spi.c ****     GPIO_InitStruct.Alternate = GPIO_AF5_SPI1;
 245              		.loc 1 93 5 is_stmt 1 view .LVU75
  93:Core/Src/spi.c ****     GPIO_InitStruct.Alternate = GPIO_AF5_SPI1;
 246              		.loc 1 93 27 is_stmt 0 view .LVU76
 247 008a 0697     		str	r7, [sp, #24]
  94:Core/Src/spi.c ****     HAL_GPIO_Init(GPIOA, &GPIO_InitStruct);
 248              		.loc 1 94 5 is_stmt 1 view .LVU77
  94:Core/Src/spi.c ****     HAL_GPIO_Init(GPIOA, &GPIO_InitStruct);
 249              		.loc 1 94 31 is_stmt 0 view .LVU78
 250 008c 0796     		str	r6, [sp, #28]
  95:Core/Src/spi.c **** 
 251              		.loc 1 95 5 is_stmt 1 view .LVU79
 252 008e 03A9     		add	r1, sp, #12
 253 0090 1E48     		ldr	r0, .L15+8
 254 0092 FFF7FEFF 		bl	HAL_GPIO_Init
 255              	.LVL7:
  99:Core/Src/spi.c ****     hdma_spi1_rx.Init.Channel = DMA_CHANNEL_3;
 256              		.loc 1 99 5 view .LVU80
  99:Core/Src/spi.c ****     hdma_spi1_rx.Init.Channel = DMA_CHANNEL_3;
 257              		.loc 1 99 27 is_stmt 0 view .LVU81
 258 0096 1E48     		ldr	r0, .L15+12
 259 0098 1E4B     		ldr	r3, .L15+16
 260 009a 0360     		str	r3, [r0]
 100:Core/Src/spi.c ****     hdma_spi1_rx.Init.Direction = DMA_PERIPH_TO_MEMORY;
 261              		.loc 1 100 5 is_stmt 1 view .LVU82
 100:Core/Src/spi.c ****     hdma_spi1_rx.Init.Direction = DMA_PERIPH_TO_MEMORY;
 262              		.loc 1 100 31 is_stmt 0 view .LVU83
 263 009c 4FF0C063 		mov	r3, #100663296
 264 00a0 4360     		str	r3, [r0, #4]
 101:Core/Src/spi.c ****     hdma_spi1_rx.Init.PeriphInc = DMA_PINC_DISABLE;
 265              		.loc 1 101 5 is_stmt 1 view .LVU84
 101:Core/Src/spi.c ****     hdma_spi1_rx.Init.PeriphInc = DMA_PINC_DISABLE;
 266              		.loc 1 101 33 is_stmt 0 view .LVU85
 267 00a2 8560     		str	r5, [r0, #8]
 102:Core/Src/spi.c ****     hdma_spi1_rx.Init.MemInc = DMA_MINC_ENABLE;
 268              		.loc 1 102 5 is_stmt 1 view .LVU86
 102:Core/Src/spi.c ****     hdma_spi1_rx.Init.MemInc = DMA_MINC_ENABLE;
 269              		.loc 1 102 33 is_stmt 0 view .LVU87
 270 00a4 C560     		str	r5, [r0, #12]
 103:Core/Src/spi.c ****     hdma_spi1_rx.Init.PeriphDataAlignment = DMA_PDATAALIGN_BYTE;
 271              		.loc 1 103 5 is_stmt 1 view .LVU88
ARM GAS  C:\Users\晚风\AppData\Local\Temp\ccf0JLsC.s 			page 9


 103:Core/Src/spi.c ****     hdma_spi1_rx.Init.PeriphDataAlignment = DMA_PDATAALIGN_BYTE;
 272              		.loc 1 103 30 is_stmt 0 view .LVU89
 273 00a6 4FF48063 		mov	r3, #1024
 274 00aa 0361     		str	r3, [r0, #16]
 104:Core/Src/spi.c ****     hdma_spi1_rx.Init.MemDataAlignment = DMA_MDATAALIGN_BYTE;
 275              		.loc 1 104 5 is_stmt 1 view .LVU90
 104:Core/Src/spi.c ****     hdma_spi1_rx.Init.MemDataAlignment = DMA_MDATAALIGN_BYTE;
 276              		.loc 1 104 43 is_stmt 0 view .LVU91
 277 00ac 4561     		str	r5, [r0, #20]
 105:Core/Src/spi.c ****     hdma_spi1_rx.Init.Mode = DMA_NORMAL;
 278              		.loc 1 105 5 is_stmt 1 view .LVU92
 105:Core/Src/spi.c ****     hdma_spi1_rx.Init.Mode = DMA_NORMAL;
 279              		.loc 1 105 40 is_stmt 0 view .LVU93
 280 00ae 8561     		str	r5, [r0, #24]
 106:Core/Src/spi.c ****     hdma_spi1_rx.Init.Priority = DMA_PRIORITY_VERY_HIGH;
 281              		.loc 1 106 5 is_stmt 1 view .LVU94
 106:Core/Src/spi.c ****     hdma_spi1_rx.Init.Priority = DMA_PRIORITY_VERY_HIGH;
 282              		.loc 1 106 28 is_stmt 0 view .LVU95
 283 00b0 C561     		str	r5, [r0, #28]
 107:Core/Src/spi.c ****     hdma_spi1_rx.Init.FIFOMode = DMA_FIFOMODE_DISABLE;
 284              		.loc 1 107 5 is_stmt 1 view .LVU96
 107:Core/Src/spi.c ****     hdma_spi1_rx.Init.FIFOMode = DMA_FIFOMODE_DISABLE;
 285              		.loc 1 107 32 is_stmt 0 view .LVU97
 286 00b2 4FF44033 		mov	r3, #196608
 287 00b6 0362     		str	r3, [r0, #32]
 108:Core/Src/spi.c ****     if (HAL_DMA_Init(&hdma_spi1_rx) != HAL_OK)
 288              		.loc 1 108 5 is_stmt 1 view .LVU98
 108:Core/Src/spi.c ****     if (HAL_DMA_Init(&hdma_spi1_rx) != HAL_OK)
 289              		.loc 1 108 32 is_stmt 0 view .LVU99
 290 00b8 4562     		str	r5, [r0, #36]
 109:Core/Src/spi.c ****     {
 291              		.loc 1 109 5 is_stmt 1 view .LVU100
 109:Core/Src/spi.c ****     {
 292              		.loc 1 109 9 is_stmt 0 view .LVU101
 293 00ba FFF7FEFF 		bl	HAL_DMA_Init
 294              	.LVL8:
 109:Core/Src/spi.c ****     {
 295              		.loc 1 109 8 discriminator 1 view .LVU102
 296 00be D8B9     		cbnz	r0, .L13
 297              	.L9:
 114:Core/Src/spi.c **** 
 298              		.loc 1 114 5 is_stmt 1 view .LVU103
 114:Core/Src/spi.c **** 
 299              		.loc 1 114 5 view .LVU104
 300 00c0 134B     		ldr	r3, .L15+12
 301 00c2 E364     		str	r3, [r4, #76]
 114:Core/Src/spi.c **** 
 302              		.loc 1 114 5 view .LVU105
 303 00c4 9C63     		str	r4, [r3, #56]
 114:Core/Src/spi.c **** 
 304              		.loc 1 114 5 view .LVU106
 117:Core/Src/spi.c ****     hdma_spi1_tx.Init.Channel = DMA_CHANNEL_3;
 305              		.loc 1 117 5 view .LVU107
 117:Core/Src/spi.c ****     hdma_spi1_tx.Init.Channel = DMA_CHANNEL_3;
 306              		.loc 1 117 27 is_stmt 0 view .LVU108
 307 00c6 1448     		ldr	r0, .L15+20
 308 00c8 144B     		ldr	r3, .L15+24
ARM GAS  C:\Users\晚风\AppData\Local\Temp\ccf0JLsC.s 			page 10


 309 00ca 0360     		str	r3, [r0]
 118:Core/Src/spi.c ****     hdma_spi1_tx.Init.Direction = DMA_MEMORY_TO_PERIPH;
 310              		.loc 1 118 5 is_stmt 1 view .LVU109
 118:Core/Src/spi.c ****     hdma_spi1_tx.Init.Direction = DMA_MEMORY_TO_PERIPH;
 311              		.loc 1 118 31 is_stmt 0 view .LVU110
 312 00cc 4FF0C063 		mov	r3, #100663296
 313 00d0 4360     		str	r3, [r0, #4]
 119:Core/Src/spi.c ****     hdma_spi1_tx.Init.PeriphInc = DMA_PINC_DISABLE;
 314              		.loc 1 119 5 is_stmt 1 view .LVU111
 119:Core/Src/spi.c ****     hdma_spi1_tx.Init.PeriphInc = DMA_PINC_DISABLE;
 315              		.loc 1 119 33 is_stmt 0 view .LVU112
 316 00d2 4023     		movs	r3, #64
 317 00d4 8360     		str	r3, [r0, #8]
 120:Core/Src/spi.c ****     hdma_spi1_tx.Init.MemInc = DMA_MINC_ENABLE;
 318              		.loc 1 120 5 is_stmt 1 view .LVU113
 120:Core/Src/spi.c ****     hdma_spi1_tx.Init.MemInc = DMA_MINC_ENABLE;
 319              		.loc 1 120 33 is_stmt 0 view .LVU114
 320 00d6 0023     		movs	r3, #0
 321 00d8 C360     		str	r3, [r0, #12]
 121:Core/Src/spi.c ****     hdma_spi1_tx.Init.PeriphDataAlignment = DMA_PDATAALIGN_BYTE;
 322              		.loc 1 121 5 is_stmt 1 view .LVU115
 121:Core/Src/spi.c ****     hdma_spi1_tx.Init.PeriphDataAlignment = DMA_PDATAALIGN_BYTE;
 323              		.loc 1 121 30 is_stmt 0 view .LVU116
 324 00da 4FF48062 		mov	r2, #1024
 325 00de 0261     		str	r2, [r0, #16]
 122:Core/Src/spi.c ****     hdma_spi1_tx.Init.MemDataAlignment = DMA_MDATAALIGN_BYTE;
 326              		.loc 1 122 5 is_stmt 1 view .LVU117
 122:Core/Src/spi.c ****     hdma_spi1_tx.Init.MemDataAlignment = DMA_MDATAALIGN_BYTE;
 327              		.loc 1 122 43 is_stmt 0 view .LVU118
 328 00e0 4361     		str	r3, [r0, #20]
 123:Core/Src/spi.c ****     hdma_spi1_tx.Init.Mode = DMA_NORMAL;
 329              		.loc 1 123 5 is_stmt 1 view .LVU119
 123:Core/Src/spi.c ****     hdma_spi1_tx.Init.Mode = DMA_NORMAL;
 330              		.loc 1 123 40 is_stmt 0 view .LVU120
 331 00e2 8361     		str	r3, [r0, #24]
 124:Core/Src/spi.c ****     hdma_spi1_tx.Init.Priority = DMA_PRIORITY_LOW;
 332              		.loc 1 124 5 is_stmt 1 view .LVU121
 124:Core/Src/spi.c ****     hdma_spi1_tx.Init.Priority = DMA_PRIORITY_LOW;
 333              		.loc 1 124 28 is_stmt 0 view .LVU122
 334 00e4 C361     		str	r3, [r0, #28]
 125:Core/Src/spi.c ****     hdma_spi1_tx.Init.FIFOMode = DMA_FIFOMODE_DISABLE;
 335              		.loc 1 125 5 is_stmt 1 view .LVU123
 125:Core/Src/spi.c ****     hdma_spi1_tx.Init.FIFOMode = DMA_FIFOMODE_DISABLE;
 336              		.loc 1 125 32 is_stmt 0 view .LVU124
 337 00e6 0362     		str	r3, [r0, #32]
 126:Core/Src/spi.c ****     if (HAL_DMA_Init(&hdma_spi1_tx) != HAL_OK)
 338              		.loc 1 126 5 is_stmt 1 view .LVU125
 126:Core/Src/spi.c ****     if (HAL_DMA_Init(&hdma_spi1_tx) != HAL_OK)
 339              		.loc 1 126 32 is_stmt 0 view .LVU126
 340 00e8 4362     		str	r3, [r0, #36]
 127:Core/Src/spi.c ****     {
 341              		.loc 1 127 5 is_stmt 1 view .LVU127
 127:Core/Src/spi.c ****     {
 342              		.loc 1 127 9 is_stmt 0 view .LVU128
 343 00ea FFF7FEFF 		bl	HAL_DMA_Init
 344              	.LVL9:
 127:Core/Src/spi.c ****     {
ARM GAS  C:\Users\晚风\AppData\Local\Temp\ccf0JLsC.s 			page 11


 345              		.loc 1 127 8 discriminator 1 view .LVU129
 346 00ee 30B9     		cbnz	r0, .L14
 347              	.L10:
 132:Core/Src/spi.c **** 
 348              		.loc 1 132 5 is_stmt 1 view .LVU130
 132:Core/Src/spi.c **** 
 349              		.loc 1 132 5 view .LVU131
 350 00f0 094B     		ldr	r3, .L15+20
 351 00f2 A364     		str	r3, [r4, #72]
 132:Core/Src/spi.c **** 
 352              		.loc 1 132 5 view .LVU132
 353 00f4 9C63     		str	r4, [r3, #56]
 132:Core/Src/spi.c **** 
 354              		.loc 1 132 5 discriminator 1 view .LVU133
 355              		.loc 1 138 1 is_stmt 0 view .LVU134
 356 00f6 90E7     		b	.L7
 357              	.L13:
 111:Core/Src/spi.c ****     }
 358              		.loc 1 111 7 is_stmt 1 view .LVU135
 359 00f8 FFF7FEFF 		bl	Error_Handler
 360              	.LVL10:
 361 00fc E0E7     		b	.L9
 362              	.L14:
 129:Core/Src/spi.c ****     }
 363              		.loc 1 129 7 view .LVU136
 364 00fe FFF7FEFF 		bl	Error_Handler
 365              	.LVL11:
 366 0102 F5E7     		b	.L10
 367              	.L16:
 368              		.align	2
 369              	.L15:
 370 0104 00300140 		.word	1073819648
 371 0108 00040240 		.word	1073873920
 372 010c 00000240 		.word	1073872896
 373 0110 00000000 		.word	hdma_spi1_rx
 374 0114 40640240 		.word	1073898560
 375 0118 00000000 		.word	hdma_spi1_tx
 376 011c 58640240 		.word	1073898584
 377              		.cfi_endproc
 378              	.LFE240:
 380              		.section	.text.HAL_SPI_MspDeInit,"ax",%progbits
 381              		.align	1
 382              		.global	HAL_SPI_MspDeInit
 383              		.syntax unified
 384              		.thumb
 385              		.thumb_func
 387              	HAL_SPI_MspDeInit:
 388              	.LVL12:
 389              	.LFB241:
 139:Core/Src/spi.c **** 
 140:Core/Src/spi.c **** void HAL_SPI_MspDeInit(SPI_HandleTypeDef* spiHandle)
 141:Core/Src/spi.c **** {
 390              		.loc 1 141 1 view -0
 391              		.cfi_startproc
 392              		@ args = 0, pretend = 0, frame = 0
 393              		@ frame_needed = 0, uses_anonymous_args = 0
 142:Core/Src/spi.c **** 
ARM GAS  C:\Users\晚风\AppData\Local\Temp\ccf0JLsC.s 			page 12


 143:Core/Src/spi.c ****   if(spiHandle->Instance==SPI1)
 394              		.loc 1 143 3 view .LVU138
 395              		.loc 1 143 15 is_stmt 0 view .LVU139
 396 0000 0268     		ldr	r2, [r0]
 397              		.loc 1 143 5 view .LVU140
 398 0002 0D4B     		ldr	r3, .L24
 399 0004 9A42     		cmp	r2, r3
 400 0006 00D0     		beq	.L23
 401 0008 7047     		bx	lr
 402              	.L23:
 141:Core/Src/spi.c **** 
 403              		.loc 1 141 1 view .LVU141
 404 000a 10B5     		push	{r4, lr}
 405              	.LCFI5:
 406              		.cfi_def_cfa_offset 8
 407              		.cfi_offset 4, -8
 408              		.cfi_offset 14, -4
 409 000c 0446     		mov	r4, r0
 144:Core/Src/spi.c ****   {
 145:Core/Src/spi.c ****   /* USER CODE BEGIN SPI1_MspDeInit 0 */
 146:Core/Src/spi.c **** 
 147:Core/Src/spi.c ****   /* USER CODE END SPI1_MspDeInit 0 */
 148:Core/Src/spi.c ****     /* Peripheral clock disable */
 149:Core/Src/spi.c ****     __HAL_RCC_SPI1_CLK_DISABLE();
 410              		.loc 1 149 5 is_stmt 1 view .LVU142
 411 000e 0B4A     		ldr	r2, .L24+4
 412 0010 536C     		ldr	r3, [r2, #68]
 413 0012 23F48053 		bic	r3, r3, #4096
 414 0016 5364     		str	r3, [r2, #68]
 150:Core/Src/spi.c **** 
 151:Core/Src/spi.c ****     /**SPI1 GPIO Configuration
 152:Core/Src/spi.c ****     PB4     ------> SPI1_MISO
 153:Core/Src/spi.c ****     PB3     ------> SPI1_SCK
 154:Core/Src/spi.c ****     PA7     ------> SPI1_MOSI
 155:Core/Src/spi.c ****     */
 156:Core/Src/spi.c ****     HAL_GPIO_DeInit(GPIOB, GPIO_PIN_4|GPIO_PIN_3);
 415              		.loc 1 156 5 view .LVU143
 416 0018 1821     		movs	r1, #24
 417 001a 0948     		ldr	r0, .L24+8
 418              	.LVL13:
 419              		.loc 1 156 5 is_stmt 0 view .LVU144
 420 001c FFF7FEFF 		bl	HAL_GPIO_DeInit
 421              	.LVL14:
 157:Core/Src/spi.c **** 
 158:Core/Src/spi.c ****     HAL_GPIO_DeInit(GPIOA, GPIO_PIN_7);
 422              		.loc 1 158 5 is_stmt 1 view .LVU145
 423 0020 8021     		movs	r1, #128
 424 0022 0848     		ldr	r0, .L24+12
 425 0024 FFF7FEFF 		bl	HAL_GPIO_DeInit
 426              	.LVL15:
 159:Core/Src/spi.c **** 
 160:Core/Src/spi.c ****     /* SPI1 DMA DeInit */
 161:Core/Src/spi.c ****     HAL_DMA_DeInit(spiHandle->hdmarx);
 427              		.loc 1 161 5 view .LVU146
 428 0028 E06C     		ldr	r0, [r4, #76]
 429 002a FFF7FEFF 		bl	HAL_DMA_DeInit
 430              	.LVL16:
ARM GAS  C:\Users\晚风\AppData\Local\Temp\ccf0JLsC.s 			page 13


 162:Core/Src/spi.c ****     HAL_DMA_DeInit(spiHandle->hdmatx);
 431              		.loc 1 162 5 view .LVU147
 432 002e A06C     		ldr	r0, [r4, #72]
 433 0030 FFF7FEFF 		bl	HAL_DMA_DeInit
 434              	.LVL17:
 163:Core/Src/spi.c ****   /* USER CODE BEGIN SPI1_MspDeInit 1 */
 164:Core/Src/spi.c **** 
 165:Core/Src/spi.c ****   /* USER CODE END SPI1_MspDeInit 1 */
 166:Core/Src/spi.c ****   }
 167:Core/Src/spi.c **** }
 435              		.loc 1 167 1 is_stmt 0 view .LVU148
 436 0034 10BD     		pop	{r4, pc}
 437              	.LVL18:
 438              	.L25:
 439              		.loc 1 167 1 view .LVU149
 440 0036 00BF     		.align	2
 441              	.L24:
 442 0038 00300140 		.word	1073819648
 443 003c 00380240 		.word	1073887232
 444 0040 00040240 		.word	1073873920
 445 0044 00000240 		.word	1073872896
 446              		.cfi_endproc
 447              	.LFE241:
 449              		.global	hdma_spi1_tx
 450              		.section	.bss.hdma_spi1_tx,"aw",%nobits
 451              		.align	2
 454              	hdma_spi1_tx:
 455 0000 00000000 		.space	96
 455      00000000 
 455      00000000 
 455      00000000 
 455      00000000 
 456              		.global	hdma_spi1_rx
 457              		.section	.bss.hdma_spi1_rx,"aw",%nobits
 458              		.align	2
 461              	hdma_spi1_rx:
 462 0000 00000000 		.space	96
 462      00000000 
 462      00000000 
 462      00000000 
 462      00000000 
 463              		.global	hspi1
 464              		.section	.bss.hspi1,"aw",%nobits
 465              		.align	2
 468              	hspi1:
 469 0000 00000000 		.space	88
 469      00000000 
 469      00000000 
 469      00000000 
 469      00000000 
 470              		.text
 471              	.Letext0:
 472              		.file 2 "D:/Applications/arm-gnu-toolchain-13.2.Rel1-mingw-w64-i686-arm-none-eabi/arm-none-eabi/in
 473              		.file 3 "D:/Applications/arm-gnu-toolchain-13.2.Rel1-mingw-w64-i686-arm-none-eabi/arm-none-eabi/in
 474              		.file 4 "Drivers/CMSIS/Device/ST/STM32F4xx/Include/stm32f407xx.h"
 475              		.file 5 "Drivers/STM32F4xx_HAL_Driver/Inc/stm32f4xx_hal_def.h"
 476              		.file 6 "Drivers/STM32F4xx_HAL_Driver/Inc/stm32f4xx_hal_gpio.h"
ARM GAS  C:\Users\晚风\AppData\Local\Temp\ccf0JLsC.s 			page 14


 477              		.file 7 "Drivers/STM32F4xx_HAL_Driver/Inc/stm32f4xx_hal_dma.h"
 478              		.file 8 "Drivers/STM32F4xx_HAL_Driver/Inc/stm32f4xx_hal_spi.h"
 479              		.file 9 "Core/Inc/spi.h"
 480              		.file 10 "Core/Inc/main.h"
ARM GAS  C:\Users\晚风\AppData\Local\Temp\ccf0JLsC.s 			page 15

