ARM GAS  C:\Users\晚风\AppData\Local\Temp\cc1uTFbL.s 			page 1


   1              		.cpu cortex-m4
   2              		.arch armv7e-m
   3              		.fpu fpv4-sp-d16
   4              		.eabi_attribute 27, 1
   5              		.eabi_attribute 28, 1
   6              		.eabi_attribute 20, 1
   7              		.eabi_attribute 21, 1
   8              		.eabi_attribute 23, 3
   9              		.eabi_attribute 24, 1
  10              		.eabi_attribute 25, 1
  11              		.eabi_attribute 26, 1
  12              		.eabi_attribute 30, 1
  13              		.eabi_attribute 34, 1
  14              		.eabi_attribute 18, 4
  15              		.file	"stm32f4xx_it.c"
  16              		.text
  17              	.Ltext0:
  18              		.cfi_sections	.debug_frame
  19              		.file 1 "Core/Src/stm32f4xx_it.c"
  20              		.section	.text.NMI_Handler,"ax",%progbits
  21              		.align	1
  22              		.global	NMI_Handler
  23              		.syntax unified
  24              		.thumb
  25              		.thumb_func
  27              	NMI_Handler:
  28              	.LFB239:
   1:Core/Src/stm32f4xx_it.c **** /* USER CODE BEGIN Header */
   2:Core/Src/stm32f4xx_it.c **** /**
   3:Core/Src/stm32f4xx_it.c ****   ******************************************************************************
   4:Core/Src/stm32f4xx_it.c ****   * @file    stm32f4xx_it.c
   5:Core/Src/stm32f4xx_it.c ****   * @brief   Interrupt Service Routines.
   6:Core/Src/stm32f4xx_it.c ****   ******************************************************************************
   7:Core/Src/stm32f4xx_it.c ****   * @attention
   8:Core/Src/stm32f4xx_it.c ****   *
   9:Core/Src/stm32f4xx_it.c ****   * Copyright (c) 2024 STMicroelectronics.
  10:Core/Src/stm32f4xx_it.c ****   * All rights reserved.
  11:Core/Src/stm32f4xx_it.c ****   *
  12:Core/Src/stm32f4xx_it.c ****   * This software is licensed under terms that can be found in the LICENSE file
  13:Core/Src/stm32f4xx_it.c ****   * in the root directory of this software component.
  14:Core/Src/stm32f4xx_it.c ****   * If no LICENSE file comes with this software, it is provided AS-IS.
  15:Core/Src/stm32f4xx_it.c ****   *
  16:Core/Src/stm32f4xx_it.c ****   ******************************************************************************
  17:Core/Src/stm32f4xx_it.c ****   */
  18:Core/Src/stm32f4xx_it.c **** /* USER CODE END Header */
  19:Core/Src/stm32f4xx_it.c **** 
  20:Core/Src/stm32f4xx_it.c **** /* Includes ------------------------------------------------------------------*/
  21:Core/Src/stm32f4xx_it.c **** #include "main.h"
  22:Core/Src/stm32f4xx_it.c **** #include "stm32f4xx_it.h"
  23:Core/Src/stm32f4xx_it.c **** /* Private includes ----------------------------------------------------------*/
  24:Core/Src/stm32f4xx_it.c **** /* USER CODE BEGIN Includes */
  25:Core/Src/stm32f4xx_it.c **** /* USER CODE END Includes */
  26:Core/Src/stm32f4xx_it.c **** 
  27:Core/Src/stm32f4xx_it.c **** /* Private typedef -----------------------------------------------------------*/
  28:Core/Src/stm32f4xx_it.c **** /* USER CODE BEGIN TD */
  29:Core/Src/stm32f4xx_it.c **** 
  30:Core/Src/stm32f4xx_it.c **** /* USER CODE END TD */
ARM GAS  C:\Users\晚风\AppData\Local\Temp\cc1uTFbL.s 			page 2


  31:Core/Src/stm32f4xx_it.c **** 
  32:Core/Src/stm32f4xx_it.c **** /* Private define ------------------------------------------------------------*/
  33:Core/Src/stm32f4xx_it.c **** /* USER CODE BEGIN PD */
  34:Core/Src/stm32f4xx_it.c **** 
  35:Core/Src/stm32f4xx_it.c **** /* USER CODE END PD */
  36:Core/Src/stm32f4xx_it.c **** 
  37:Core/Src/stm32f4xx_it.c **** /* Private macro -------------------------------------------------------------*/
  38:Core/Src/stm32f4xx_it.c **** /* USER CODE BEGIN PM */
  39:Core/Src/stm32f4xx_it.c **** 
  40:Core/Src/stm32f4xx_it.c **** /* USER CODE END PM */
  41:Core/Src/stm32f4xx_it.c **** 
  42:Core/Src/stm32f4xx_it.c **** /* Private variables ---------------------------------------------------------*/
  43:Core/Src/stm32f4xx_it.c **** /* USER CODE BEGIN PV */
  44:Core/Src/stm32f4xx_it.c **** 
  45:Core/Src/stm32f4xx_it.c **** /* USER CODE END PV */
  46:Core/Src/stm32f4xx_it.c **** 
  47:Core/Src/stm32f4xx_it.c **** /* Private function prototypes -----------------------------------------------*/
  48:Core/Src/stm32f4xx_it.c **** /* USER CODE BEGIN PFP */
  49:Core/Src/stm32f4xx_it.c **** 
  50:Core/Src/stm32f4xx_it.c **** /* USER CODE END PFP */
  51:Core/Src/stm32f4xx_it.c **** 
  52:Core/Src/stm32f4xx_it.c **** /* Private user code ---------------------------------------------------------*/
  53:Core/Src/stm32f4xx_it.c **** /* USER CODE BEGIN 0 */
  54:Core/Src/stm32f4xx_it.c **** 
  55:Core/Src/stm32f4xx_it.c **** /* USER CODE END 0 */
  56:Core/Src/stm32f4xx_it.c **** 
  57:Core/Src/stm32f4xx_it.c **** /* External variables --------------------------------------------------------*/
  58:Core/Src/stm32f4xx_it.c **** extern PCD_HandleTypeDef hpcd_USB_OTG_FS;
  59:Core/Src/stm32f4xx_it.c **** extern DMA_HandleTypeDef hdma_adc3;
  60:Core/Src/stm32f4xx_it.c **** extern DMA_HandleTypeDef hdma_i2c3_rx;
  61:Core/Src/stm32f4xx_it.c **** extern DMA_HandleTypeDef hdma_i2c3_tx;
  62:Core/Src/stm32f4xx_it.c **** extern DMA_HandleTypeDef hdma_spi1_rx;
  63:Core/Src/stm32f4xx_it.c **** extern DMA_HandleTypeDef hdma_spi1_tx;
  64:Core/Src/stm32f4xx_it.c **** extern DMA_HandleTypeDef hdma_tim4_ch3;
  65:Core/Src/stm32f4xx_it.c **** extern TIM_HandleTypeDef htim8;
  66:Core/Src/stm32f4xx_it.c **** extern DMA_HandleTypeDef hdma_usart1_rx;
  67:Core/Src/stm32f4xx_it.c **** extern DMA_HandleTypeDef hdma_usart1_tx;
  68:Core/Src/stm32f4xx_it.c **** extern DMA_HandleTypeDef hdma_usart3_rx;
  69:Core/Src/stm32f4xx_it.c **** extern DMA_HandleTypeDef hdma_usart6_rx;
  70:Core/Src/stm32f4xx_it.c **** extern DMA_HandleTypeDef hdma_usart6_tx;
  71:Core/Src/stm32f4xx_it.c **** extern UART_HandleTypeDef huart1;
  72:Core/Src/stm32f4xx_it.c **** extern UART_HandleTypeDef huart6;
  73:Core/Src/stm32f4xx_it.c **** extern TIM_HandleTypeDef htim14;
  74:Core/Src/stm32f4xx_it.c **** 
  75:Core/Src/stm32f4xx_it.c **** /* USER CODE BEGIN EV */
  76:Core/Src/stm32f4xx_it.c **** 
  77:Core/Src/stm32f4xx_it.c **** /* USER CODE END EV */
  78:Core/Src/stm32f4xx_it.c **** 
  79:Core/Src/stm32f4xx_it.c **** /******************************************************************************/
  80:Core/Src/stm32f4xx_it.c **** /*           Cortex-M4 Processor Interruption and Exception Handlers          */
  81:Core/Src/stm32f4xx_it.c **** /******************************************************************************/
  82:Core/Src/stm32f4xx_it.c **** /**
  83:Core/Src/stm32f4xx_it.c ****   * @brief This function handles Non maskable interrupt.
  84:Core/Src/stm32f4xx_it.c ****   */
  85:Core/Src/stm32f4xx_it.c **** void NMI_Handler(void)
  86:Core/Src/stm32f4xx_it.c **** {
  29              		.loc 1 86 1 view -0
ARM GAS  C:\Users\晚风\AppData\Local\Temp\cc1uTFbL.s 			page 3


  30              		.cfi_startproc
  31              		@ Volatile: function does not return.
  32              		@ args = 0, pretend = 0, frame = 0
  33              		@ frame_needed = 0, uses_anonymous_args = 0
  34 0000 08B5     		push	{r3, lr}
  35              	.LCFI0:
  36              		.cfi_def_cfa_offset 8
  37              		.cfi_offset 3, -8
  38              		.cfi_offset 14, -4
  87:Core/Src/stm32f4xx_it.c ****   /* USER CODE BEGIN NonMaskableInt_IRQn 0 */
  88:Core/Src/stm32f4xx_it.c **** 
  89:Core/Src/stm32f4xx_it.c ****   /* USER CODE END NonMaskableInt_IRQn 0 */
  90:Core/Src/stm32f4xx_it.c ****   HAL_RCC_NMI_IRQHandler();
  39              		.loc 1 90 3 view .LVU1
  40 0002 FFF7FEFF 		bl	HAL_RCC_NMI_IRQHandler
  41              	.LVL0:
  42              	.L2:
  91:Core/Src/stm32f4xx_it.c ****   /* USER CODE BEGIN NonMaskableInt_IRQn 1 */
  92:Core/Src/stm32f4xx_it.c ****    while (1)
  43              		.loc 1 92 4 view .LVU2
  93:Core/Src/stm32f4xx_it.c ****   {
  94:Core/Src/stm32f4xx_it.c ****   }
  44              		.loc 1 94 3 view .LVU3
  92:Core/Src/stm32f4xx_it.c ****   {
  45              		.loc 1 92 10 view .LVU4
  46 0006 FEE7     		b	.L2
  47              		.cfi_endproc
  48              	.LFE239:
  50              		.section	.text.HardFault_Handler,"ax",%progbits
  51              		.align	1
  52              		.global	HardFault_Handler
  53              		.syntax unified
  54              		.thumb
  55              		.thumb_func
  57              	HardFault_Handler:
  58              	.LFB240:
  95:Core/Src/stm32f4xx_it.c ****   /* USER CODE END NonMaskableInt_IRQn 1 */
  96:Core/Src/stm32f4xx_it.c **** }
  97:Core/Src/stm32f4xx_it.c **** 
  98:Core/Src/stm32f4xx_it.c **** /**
  99:Core/Src/stm32f4xx_it.c ****   * @brief This function handles Hard fault interrupt.
 100:Core/Src/stm32f4xx_it.c ****   */
 101:Core/Src/stm32f4xx_it.c **** void HardFault_Handler(void)
 102:Core/Src/stm32f4xx_it.c **** {
  59              		.loc 1 102 1 view -0
  60              		.cfi_startproc
  61              		@ Volatile: function does not return.
  62              		@ args = 0, pretend = 0, frame = 0
  63              		@ frame_needed = 0, uses_anonymous_args = 0
  64              		@ link register save eliminated.
  65              	.L5:
 103:Core/Src/stm32f4xx_it.c ****   /* USER CODE BEGIN HardFault_IRQn 0 */
 104:Core/Src/stm32f4xx_it.c **** 
 105:Core/Src/stm32f4xx_it.c ****   /* USER CODE END HardFault_IRQn 0 */
 106:Core/Src/stm32f4xx_it.c ****   while (1)
  66              		.loc 1 106 3 view .LVU6
 107:Core/Src/stm32f4xx_it.c ****   {
ARM GAS  C:\Users\晚风\AppData\Local\Temp\cc1uTFbL.s 			page 4


 108:Core/Src/stm32f4xx_it.c ****     /* USER CODE BEGIN W1_HardFault_IRQn 0 */
 109:Core/Src/stm32f4xx_it.c ****     /* USER CODE END W1_HardFault_IRQn 0 */
 110:Core/Src/stm32f4xx_it.c ****   }
  67              		.loc 1 110 3 view .LVU7
 106:Core/Src/stm32f4xx_it.c ****   {
  68              		.loc 1 106 9 view .LVU8
  69 0000 FEE7     		b	.L5
  70              		.cfi_endproc
  71              	.LFE240:
  73              		.section	.text.MemManage_Handler,"ax",%progbits
  74              		.align	1
  75              		.global	MemManage_Handler
  76              		.syntax unified
  77              		.thumb
  78              		.thumb_func
  80              	MemManage_Handler:
  81              	.LFB241:
 111:Core/Src/stm32f4xx_it.c **** }
 112:Core/Src/stm32f4xx_it.c **** 
 113:Core/Src/stm32f4xx_it.c **** /**
 114:Core/Src/stm32f4xx_it.c ****   * @brief This function handles Memory management fault.
 115:Core/Src/stm32f4xx_it.c ****   */
 116:Core/Src/stm32f4xx_it.c **** void MemManage_Handler(void)
 117:Core/Src/stm32f4xx_it.c **** {
  82              		.loc 1 117 1 view -0
  83              		.cfi_startproc
  84              		@ Volatile: function does not return.
  85              		@ args = 0, pretend = 0, frame = 0
  86              		@ frame_needed = 0, uses_anonymous_args = 0
  87              		@ link register save eliminated.
  88              	.L7:
 118:Core/Src/stm32f4xx_it.c ****   /* USER CODE BEGIN MemoryManagement_IRQn 0 */
 119:Core/Src/stm32f4xx_it.c **** 
 120:Core/Src/stm32f4xx_it.c ****   /* USER CODE END MemoryManagement_IRQn 0 */
 121:Core/Src/stm32f4xx_it.c ****   while (1)
  89              		.loc 1 121 3 view .LVU10
 122:Core/Src/stm32f4xx_it.c ****   {
 123:Core/Src/stm32f4xx_it.c ****     /* USER CODE BEGIN W1_MemoryManagement_IRQn 0 */
 124:Core/Src/stm32f4xx_it.c ****     /* USER CODE END W1_MemoryManagement_IRQn 0 */
 125:Core/Src/stm32f4xx_it.c ****   }
  90              		.loc 1 125 3 view .LVU11
 121:Core/Src/stm32f4xx_it.c ****   {
  91              		.loc 1 121 9 view .LVU12
  92 0000 FEE7     		b	.L7
  93              		.cfi_endproc
  94              	.LFE241:
  96              		.section	.text.BusFault_Handler,"ax",%progbits
  97              		.align	1
  98              		.global	BusFault_Handler
  99              		.syntax unified
 100              		.thumb
 101              		.thumb_func
 103              	BusFault_Handler:
 104              	.LFB242:
 126:Core/Src/stm32f4xx_it.c **** }
 127:Core/Src/stm32f4xx_it.c **** 
 128:Core/Src/stm32f4xx_it.c **** /**
ARM GAS  C:\Users\晚风\AppData\Local\Temp\cc1uTFbL.s 			page 5


 129:Core/Src/stm32f4xx_it.c ****   * @brief This function handles Pre-fetch fault, memory access fault.
 130:Core/Src/stm32f4xx_it.c ****   */
 131:Core/Src/stm32f4xx_it.c **** void BusFault_Handler(void)
 132:Core/Src/stm32f4xx_it.c **** {
 105              		.loc 1 132 1 view -0
 106              		.cfi_startproc
 107              		@ Volatile: function does not return.
 108              		@ args = 0, pretend = 0, frame = 0
 109              		@ frame_needed = 0, uses_anonymous_args = 0
 110              		@ link register save eliminated.
 111              	.L9:
 133:Core/Src/stm32f4xx_it.c ****   /* USER CODE BEGIN BusFault_IRQn 0 */
 134:Core/Src/stm32f4xx_it.c **** 
 135:Core/Src/stm32f4xx_it.c ****   /* USER CODE END BusFault_IRQn 0 */
 136:Core/Src/stm32f4xx_it.c ****   while (1)
 112              		.loc 1 136 3 view .LVU14
 137:Core/Src/stm32f4xx_it.c ****   {
 138:Core/Src/stm32f4xx_it.c ****     /* USER CODE BEGIN W1_BusFault_IRQn 0 */
 139:Core/Src/stm32f4xx_it.c ****     /* USER CODE END W1_BusFault_IRQn 0 */
 140:Core/Src/stm32f4xx_it.c ****   }
 113              		.loc 1 140 3 view .LVU15
 136:Core/Src/stm32f4xx_it.c ****   {
 114              		.loc 1 136 9 view .LVU16
 115 0000 FEE7     		b	.L9
 116              		.cfi_endproc
 117              	.LFE242:
 119              		.section	.text.UsageFault_Handler,"ax",%progbits
 120              		.align	1
 121              		.global	UsageFault_Handler
 122              		.syntax unified
 123              		.thumb
 124              		.thumb_func
 126              	UsageFault_Handler:
 127              	.LFB243:
 141:Core/Src/stm32f4xx_it.c **** }
 142:Core/Src/stm32f4xx_it.c **** 
 143:Core/Src/stm32f4xx_it.c **** /**
 144:Core/Src/stm32f4xx_it.c ****   * @brief This function handles Undefined instruction or illegal state.
 145:Core/Src/stm32f4xx_it.c ****   */
 146:Core/Src/stm32f4xx_it.c **** void UsageFault_Handler(void)
 147:Core/Src/stm32f4xx_it.c **** {
 128              		.loc 1 147 1 view -0
 129              		.cfi_startproc
 130              		@ Volatile: function does not return.
 131              		@ args = 0, pretend = 0, frame = 0
 132              		@ frame_needed = 0, uses_anonymous_args = 0
 133              		@ link register save eliminated.
 134              	.L11:
 148:Core/Src/stm32f4xx_it.c ****   /* USER CODE BEGIN UsageFault_IRQn 0 */
 149:Core/Src/stm32f4xx_it.c **** 
 150:Core/Src/stm32f4xx_it.c ****   /* USER CODE END UsageFault_IRQn 0 */
 151:Core/Src/stm32f4xx_it.c ****   while (1)
 135              		.loc 1 151 3 view .LVU18
 152:Core/Src/stm32f4xx_it.c ****   {
 153:Core/Src/stm32f4xx_it.c ****     /* USER CODE BEGIN W1_UsageFault_IRQn 0 */
 154:Core/Src/stm32f4xx_it.c ****     /* USER CODE END W1_UsageFault_IRQn 0 */
 155:Core/Src/stm32f4xx_it.c ****   }
ARM GAS  C:\Users\晚风\AppData\Local\Temp\cc1uTFbL.s 			page 6


 136              		.loc 1 155 3 view .LVU19
 151:Core/Src/stm32f4xx_it.c ****   {
 137              		.loc 1 151 9 view .LVU20
 138 0000 FEE7     		b	.L11
 139              		.cfi_endproc
 140              	.LFE243:
 142              		.section	.text.DebugMon_Handler,"ax",%progbits
 143              		.align	1
 144              		.global	DebugMon_Handler
 145              		.syntax unified
 146              		.thumb
 147              		.thumb_func
 149              	DebugMon_Handler:
 150              	.LFB244:
 156:Core/Src/stm32f4xx_it.c **** }
 157:Core/Src/stm32f4xx_it.c **** 
 158:Core/Src/stm32f4xx_it.c **** /**
 159:Core/Src/stm32f4xx_it.c ****   * @brief This function handles Debug monitor.
 160:Core/Src/stm32f4xx_it.c ****   */
 161:Core/Src/stm32f4xx_it.c **** void DebugMon_Handler(void)
 162:Core/Src/stm32f4xx_it.c **** {
 151              		.loc 1 162 1 view -0
 152              		.cfi_startproc
 153              		@ args = 0, pretend = 0, frame = 0
 154              		@ frame_needed = 0, uses_anonymous_args = 0
 155              		@ link register save eliminated.
 163:Core/Src/stm32f4xx_it.c ****   /* USER CODE BEGIN DebugMonitor_IRQn 0 */
 164:Core/Src/stm32f4xx_it.c **** 
 165:Core/Src/stm32f4xx_it.c ****   /* USER CODE END DebugMonitor_IRQn 0 */
 166:Core/Src/stm32f4xx_it.c ****   /* USER CODE BEGIN DebugMonitor_IRQn 1 */
 167:Core/Src/stm32f4xx_it.c **** 
 168:Core/Src/stm32f4xx_it.c ****   /* USER CODE END DebugMonitor_IRQn 1 */
 169:Core/Src/stm32f4xx_it.c **** }
 156              		.loc 1 169 1 view .LVU22
 157 0000 7047     		bx	lr
 158              		.cfi_endproc
 159              	.LFE244:
 161              		.section	.text.EXTI0_IRQHandler,"ax",%progbits
 162              		.align	1
 163              		.global	EXTI0_IRQHandler
 164              		.syntax unified
 165              		.thumb
 166              		.thumb_func
 168              	EXTI0_IRQHandler:
 169              	.LFB245:
 170:Core/Src/stm32f4xx_it.c **** 
 171:Core/Src/stm32f4xx_it.c **** /******************************************************************************/
 172:Core/Src/stm32f4xx_it.c **** /* STM32F4xx Peripheral Interrupt Handlers                                    */
 173:Core/Src/stm32f4xx_it.c **** /* Add here the Interrupt Handlers for the used peripherals.                  */
 174:Core/Src/stm32f4xx_it.c **** /* For the available peripheral interrupt handler names,                      */
 175:Core/Src/stm32f4xx_it.c **** /* please refer to the startup file (startup_stm32f4xx.s).                    */
 176:Core/Src/stm32f4xx_it.c **** /******************************************************************************/
 177:Core/Src/stm32f4xx_it.c **** 
 178:Core/Src/stm32f4xx_it.c **** /**
 179:Core/Src/stm32f4xx_it.c ****   * @brief This function handles EXTI line0 interrupt.
 180:Core/Src/stm32f4xx_it.c ****   */
 181:Core/Src/stm32f4xx_it.c **** void EXTI0_IRQHandler(void)
ARM GAS  C:\Users\晚风\AppData\Local\Temp\cc1uTFbL.s 			page 7


 182:Core/Src/stm32f4xx_it.c **** {
 170              		.loc 1 182 1 view -0
 171              		.cfi_startproc
 172              		@ args = 0, pretend = 0, frame = 0
 173              		@ frame_needed = 0, uses_anonymous_args = 0
 174 0000 08B5     		push	{r3, lr}
 175              	.LCFI1:
 176              		.cfi_def_cfa_offset 8
 177              		.cfi_offset 3, -8
 178              		.cfi_offset 14, -4
 183:Core/Src/stm32f4xx_it.c ****   /* USER CODE BEGIN EXTI0_IRQn 0 */
 184:Core/Src/stm32f4xx_it.c **** 
 185:Core/Src/stm32f4xx_it.c ****   /* USER CODE END EXTI0_IRQn 0 */
 186:Core/Src/stm32f4xx_it.c ****   HAL_GPIO_EXTI_IRQHandler(USER_KEY_Pin);
 179              		.loc 1 186 3 view .LVU24
 180 0002 0120     		movs	r0, #1
 181 0004 FFF7FEFF 		bl	HAL_GPIO_EXTI_IRQHandler
 182              	.LVL1:
 187:Core/Src/stm32f4xx_it.c ****   /* USER CODE BEGIN EXTI0_IRQn 1 */
 188:Core/Src/stm32f4xx_it.c **** 
 189:Core/Src/stm32f4xx_it.c ****   /* USER CODE END EXTI0_IRQn 1 */
 190:Core/Src/stm32f4xx_it.c **** }
 183              		.loc 1 190 1 is_stmt 0 view .LVU25
 184 0008 08BD     		pop	{r3, pc}
 185              		.cfi_endproc
 186              	.LFE245:
 188              		.section	.text.EXTI3_IRQHandler,"ax",%progbits
 189              		.align	1
 190              		.global	EXTI3_IRQHandler
 191              		.syntax unified
 192              		.thumb
 193              		.thumb_func
 195              	EXTI3_IRQHandler:
 196              	.LFB246:
 191:Core/Src/stm32f4xx_it.c **** 
 192:Core/Src/stm32f4xx_it.c **** /**
 193:Core/Src/stm32f4xx_it.c ****   * @brief This function handles EXTI line3 interrupt.
 194:Core/Src/stm32f4xx_it.c ****   */
 195:Core/Src/stm32f4xx_it.c **** void EXTI3_IRQHandler(void)
 196:Core/Src/stm32f4xx_it.c **** {
 197              		.loc 1 196 1 is_stmt 1 view -0
 198              		.cfi_startproc
 199              		@ args = 0, pretend = 0, frame = 0
 200              		@ frame_needed = 0, uses_anonymous_args = 0
 201 0000 08B5     		push	{r3, lr}
 202              	.LCFI2:
 203              		.cfi_def_cfa_offset 8
 204              		.cfi_offset 3, -8
 205              		.cfi_offset 14, -4
 197:Core/Src/stm32f4xx_it.c ****   /* USER CODE BEGIN EXTI3_IRQn 0 */
 198:Core/Src/stm32f4xx_it.c **** 
 199:Core/Src/stm32f4xx_it.c ****   /* USER CODE END EXTI3_IRQn 0 */
 200:Core/Src/stm32f4xx_it.c ****   HAL_GPIO_EXTI_IRQHandler(DRDY_Pin);
 206              		.loc 1 200 3 view .LVU27
 207 0002 0820     		movs	r0, #8
 208 0004 FFF7FEFF 		bl	HAL_GPIO_EXTI_IRQHandler
 209              	.LVL2:
ARM GAS  C:\Users\晚风\AppData\Local\Temp\cc1uTFbL.s 			page 8


 201:Core/Src/stm32f4xx_it.c ****   /* USER CODE BEGIN EXTI3_IRQn 1 */
 202:Core/Src/stm32f4xx_it.c **** 
 203:Core/Src/stm32f4xx_it.c ****   /* USER CODE END EXTI3_IRQn 1 */
 204:Core/Src/stm32f4xx_it.c **** }
 210              		.loc 1 204 1 is_stmt 0 view .LVU28
 211 0008 08BD     		pop	{r3, pc}
 212              		.cfi_endproc
 213              	.LFE246:
 215              		.section	.text.EXTI4_IRQHandler,"ax",%progbits
 216              		.align	1
 217              		.global	EXTI4_IRQHandler
 218              		.syntax unified
 219              		.thumb
 220              		.thumb_func
 222              	EXTI4_IRQHandler:
 223              	.LFB247:
 205:Core/Src/stm32f4xx_it.c **** 
 206:Core/Src/stm32f4xx_it.c **** /**
 207:Core/Src/stm32f4xx_it.c ****   * @brief This function handles EXTI line4 interrupt.
 208:Core/Src/stm32f4xx_it.c ****   */
 209:Core/Src/stm32f4xx_it.c **** void EXTI4_IRQHandler(void)
 210:Core/Src/stm32f4xx_it.c **** {
 224              		.loc 1 210 1 is_stmt 1 view -0
 225              		.cfi_startproc
 226              		@ args = 0, pretend = 0, frame = 0
 227              		@ frame_needed = 0, uses_anonymous_args = 0
 228 0000 08B5     		push	{r3, lr}
 229              	.LCFI3:
 230              		.cfi_def_cfa_offset 8
 231              		.cfi_offset 3, -8
 232              		.cfi_offset 14, -4
 211:Core/Src/stm32f4xx_it.c ****   /* USER CODE BEGIN EXTI4_IRQn 0 */
 212:Core/Src/stm32f4xx_it.c **** 
 213:Core/Src/stm32f4xx_it.c ****   /* USER CODE END EXTI4_IRQn 0 */
 214:Core/Src/stm32f4xx_it.c ****   HAL_GPIO_EXTI_IRQHandler(INT_ACCEL_Pin);
 233              		.loc 1 214 3 view .LVU30
 234 0002 1020     		movs	r0, #16
 235 0004 FFF7FEFF 		bl	HAL_GPIO_EXTI_IRQHandler
 236              	.LVL3:
 215:Core/Src/stm32f4xx_it.c ****   /* USER CODE BEGIN EXTI4_IRQn 1 */
 216:Core/Src/stm32f4xx_it.c **** 
 217:Core/Src/stm32f4xx_it.c ****   /* USER CODE END EXTI4_IRQn 1 */
 218:Core/Src/stm32f4xx_it.c **** }
 237              		.loc 1 218 1 is_stmt 0 view .LVU31
 238 0008 08BD     		pop	{r3, pc}
 239              		.cfi_endproc
 240              	.LFE247:
 242              		.section	.text.DMA1_Stream1_IRQHandler,"ax",%progbits
 243              		.align	1
 244              		.global	DMA1_Stream1_IRQHandler
 245              		.syntax unified
 246              		.thumb
 247              		.thumb_func
 249              	DMA1_Stream1_IRQHandler:
 250              	.LFB248:
 219:Core/Src/stm32f4xx_it.c **** 
 220:Core/Src/stm32f4xx_it.c **** /**
ARM GAS  C:\Users\晚风\AppData\Local\Temp\cc1uTFbL.s 			page 9


 221:Core/Src/stm32f4xx_it.c ****   * @brief This function handles DMA1 stream1 global interrupt.
 222:Core/Src/stm32f4xx_it.c ****   */
 223:Core/Src/stm32f4xx_it.c **** void DMA1_Stream1_IRQHandler(void)
 224:Core/Src/stm32f4xx_it.c **** {
 251              		.loc 1 224 1 is_stmt 1 view -0
 252              		.cfi_startproc
 253              		@ args = 0, pretend = 0, frame = 0
 254              		@ frame_needed = 0, uses_anonymous_args = 0
 255 0000 08B5     		push	{r3, lr}
 256              	.LCFI4:
 257              		.cfi_def_cfa_offset 8
 258              		.cfi_offset 3, -8
 259              		.cfi_offset 14, -4
 225:Core/Src/stm32f4xx_it.c ****   /* USER CODE BEGIN DMA1_Stream1_IRQn 0 */
 226:Core/Src/stm32f4xx_it.c **** 
 227:Core/Src/stm32f4xx_it.c ****   /* USER CODE END DMA1_Stream1_IRQn 0 */
 228:Core/Src/stm32f4xx_it.c ****   HAL_DMA_IRQHandler(&hdma_usart3_rx);
 260              		.loc 1 228 3 view .LVU33
 261 0002 0248     		ldr	r0, .L21
 262 0004 FFF7FEFF 		bl	HAL_DMA_IRQHandler
 263              	.LVL4:
 229:Core/Src/stm32f4xx_it.c ****   /* USER CODE BEGIN DMA1_Stream1_IRQn 1 */
 230:Core/Src/stm32f4xx_it.c **** 
 231:Core/Src/stm32f4xx_it.c ****   /* USER CODE END DMA1_Stream1_IRQn 1 */
 232:Core/Src/stm32f4xx_it.c **** }
 264              		.loc 1 232 1 is_stmt 0 view .LVU34
 265 0008 08BD     		pop	{r3, pc}
 266              	.L22:
 267 000a 00BF     		.align	2
 268              	.L21:
 269 000c 00000000 		.word	hdma_usart3_rx
 270              		.cfi_endproc
 271              	.LFE248:
 273              		.section	.text.DMA1_Stream2_IRQHandler,"ax",%progbits
 274              		.align	1
 275              		.global	DMA1_Stream2_IRQHandler
 276              		.syntax unified
 277              		.thumb
 278              		.thumb_func
 280              	DMA1_Stream2_IRQHandler:
 281              	.LFB249:
 233:Core/Src/stm32f4xx_it.c **** 
 234:Core/Src/stm32f4xx_it.c **** /**
 235:Core/Src/stm32f4xx_it.c ****   * @brief This function handles DMA1 stream2 global interrupt.
 236:Core/Src/stm32f4xx_it.c ****   */
 237:Core/Src/stm32f4xx_it.c **** void DMA1_Stream2_IRQHandler(void)
 238:Core/Src/stm32f4xx_it.c **** {
 282              		.loc 1 238 1 is_stmt 1 view -0
 283              		.cfi_startproc
 284              		@ args = 0, pretend = 0, frame = 0
 285              		@ frame_needed = 0, uses_anonymous_args = 0
 286 0000 08B5     		push	{r3, lr}
 287              	.LCFI5:
 288              		.cfi_def_cfa_offset 8
 289              		.cfi_offset 3, -8
 290              		.cfi_offset 14, -4
 239:Core/Src/stm32f4xx_it.c ****   /* USER CODE BEGIN DMA1_Stream2_IRQn 0 */
ARM GAS  C:\Users\晚风\AppData\Local\Temp\cc1uTFbL.s 			page 10


 240:Core/Src/stm32f4xx_it.c **** 
 241:Core/Src/stm32f4xx_it.c ****   /* USER CODE END DMA1_Stream2_IRQn 0 */
 242:Core/Src/stm32f4xx_it.c ****   HAL_DMA_IRQHandler(&hdma_i2c3_rx);
 291              		.loc 1 242 3 view .LVU36
 292 0002 0248     		ldr	r0, .L25
 293 0004 FFF7FEFF 		bl	HAL_DMA_IRQHandler
 294              	.LVL5:
 243:Core/Src/stm32f4xx_it.c ****   /* USER CODE BEGIN DMA1_Stream2_IRQn 1 */
 244:Core/Src/stm32f4xx_it.c **** 
 245:Core/Src/stm32f4xx_it.c ****   /* USER CODE END DMA1_Stream2_IRQn 1 */
 246:Core/Src/stm32f4xx_it.c **** }
 295              		.loc 1 246 1 is_stmt 0 view .LVU37
 296 0008 08BD     		pop	{r3, pc}
 297              	.L26:
 298 000a 00BF     		.align	2
 299              	.L25:
 300 000c 00000000 		.word	hdma_i2c3_rx
 301              		.cfi_endproc
 302              	.LFE249:
 304              		.section	.text.DMA1_Stream4_IRQHandler,"ax",%progbits
 305              		.align	1
 306              		.global	DMA1_Stream4_IRQHandler
 307              		.syntax unified
 308              		.thumb
 309              		.thumb_func
 311              	DMA1_Stream4_IRQHandler:
 312              	.LFB250:
 247:Core/Src/stm32f4xx_it.c **** 
 248:Core/Src/stm32f4xx_it.c **** /**
 249:Core/Src/stm32f4xx_it.c ****   * @brief This function handles DMA1 stream4 global interrupt.
 250:Core/Src/stm32f4xx_it.c ****   */
 251:Core/Src/stm32f4xx_it.c **** void DMA1_Stream4_IRQHandler(void)
 252:Core/Src/stm32f4xx_it.c **** {
 313              		.loc 1 252 1 is_stmt 1 view -0
 314              		.cfi_startproc
 315              		@ args = 0, pretend = 0, frame = 0
 316              		@ frame_needed = 0, uses_anonymous_args = 0
 317 0000 08B5     		push	{r3, lr}
 318              	.LCFI6:
 319              		.cfi_def_cfa_offset 8
 320              		.cfi_offset 3, -8
 321              		.cfi_offset 14, -4
 253:Core/Src/stm32f4xx_it.c ****   /* USER CODE BEGIN DMA1_Stream4_IRQn 0 */
 254:Core/Src/stm32f4xx_it.c **** 
 255:Core/Src/stm32f4xx_it.c ****   /* USER CODE END DMA1_Stream4_IRQn 0 */
 256:Core/Src/stm32f4xx_it.c ****   HAL_DMA_IRQHandler(&hdma_i2c3_tx);
 322              		.loc 1 256 3 view .LVU39
 323 0002 0248     		ldr	r0, .L29
 324 0004 FFF7FEFF 		bl	HAL_DMA_IRQHandler
 325              	.LVL6:
 257:Core/Src/stm32f4xx_it.c ****   /* USER CODE BEGIN DMA1_Stream4_IRQn 1 */
 258:Core/Src/stm32f4xx_it.c **** 
 259:Core/Src/stm32f4xx_it.c ****   /* USER CODE END DMA1_Stream4_IRQn 1 */
 260:Core/Src/stm32f4xx_it.c **** }
 326              		.loc 1 260 1 is_stmt 0 view .LVU40
 327 0008 08BD     		pop	{r3, pc}
 328              	.L30:
ARM GAS  C:\Users\晚风\AppData\Local\Temp\cc1uTFbL.s 			page 11


 329 000a 00BF     		.align	2
 330              	.L29:
 331 000c 00000000 		.word	hdma_i2c3_tx
 332              		.cfi_endproc
 333              	.LFE250:
 335              		.section	.text.EXTI9_5_IRQHandler,"ax",%progbits
 336              		.align	1
 337              		.global	EXTI9_5_IRQHandler
 338              		.syntax unified
 339              		.thumb
 340              		.thumb_func
 342              	EXTI9_5_IRQHandler:
 343              	.LFB251:
 261:Core/Src/stm32f4xx_it.c **** 
 262:Core/Src/stm32f4xx_it.c **** /**
 263:Core/Src/stm32f4xx_it.c ****   * @brief This function handles EXTI line[9:5] interrupts.
 264:Core/Src/stm32f4xx_it.c ****   */
 265:Core/Src/stm32f4xx_it.c **** void EXTI9_5_IRQHandler(void)
 266:Core/Src/stm32f4xx_it.c **** {
 344              		.loc 1 266 1 is_stmt 1 view -0
 345              		.cfi_startproc
 346              		@ args = 0, pretend = 0, frame = 0
 347              		@ frame_needed = 0, uses_anonymous_args = 0
 348 0000 08B5     		push	{r3, lr}
 349              	.LCFI7:
 350              		.cfi_def_cfa_offset 8
 351              		.cfi_offset 3, -8
 352              		.cfi_offset 14, -4
 267:Core/Src/stm32f4xx_it.c ****   /* USER CODE BEGIN EXTI9_5_IRQn 0 */
 268:Core/Src/stm32f4xx_it.c **** 
 269:Core/Src/stm32f4xx_it.c ****   /* USER CODE END EXTI9_5_IRQn 0 */
 270:Core/Src/stm32f4xx_it.c ****   HAL_GPIO_EXTI_IRQHandler(INT_GYRO_Pin);
 353              		.loc 1 270 3 view .LVU42
 354 0002 2020     		movs	r0, #32
 355 0004 FFF7FEFF 		bl	HAL_GPIO_EXTI_IRQHandler
 356              	.LVL7:
 271:Core/Src/stm32f4xx_it.c ****   /* USER CODE BEGIN EXTI9_5_IRQn 1 */
 272:Core/Src/stm32f4xx_it.c **** 
 273:Core/Src/stm32f4xx_it.c ****   /* USER CODE END EXTI9_5_IRQn 1 */
 274:Core/Src/stm32f4xx_it.c **** }
 357              		.loc 1 274 1 is_stmt 0 view .LVU43
 358 0008 08BD     		pop	{r3, pc}
 359              		.cfi_endproc
 360              	.LFE251:
 362              		.section	.text.USART1_IRQHandler,"ax",%progbits
 363              		.align	1
 364              		.global	USART1_IRQHandler
 365              		.syntax unified
 366              		.thumb
 367              		.thumb_func
 369              	USART1_IRQHandler:
 370              	.LFB252:
 275:Core/Src/stm32f4xx_it.c **** 
 276:Core/Src/stm32f4xx_it.c **** /**
 277:Core/Src/stm32f4xx_it.c ****   * @brief This function handles USART1 global interrupt.
 278:Core/Src/stm32f4xx_it.c ****   */
 279:Core/Src/stm32f4xx_it.c **** void USART1_IRQHandler(void)
ARM GAS  C:\Users\晚风\AppData\Local\Temp\cc1uTFbL.s 			page 12


 280:Core/Src/stm32f4xx_it.c **** {
 371              		.loc 1 280 1 is_stmt 1 view -0
 372              		.cfi_startproc
 373              		@ args = 0, pretend = 0, frame = 0
 374              		@ frame_needed = 0, uses_anonymous_args = 0
 375 0000 08B5     		push	{r3, lr}
 376              	.LCFI8:
 377              		.cfi_def_cfa_offset 8
 378              		.cfi_offset 3, -8
 379              		.cfi_offset 14, -4
 281:Core/Src/stm32f4xx_it.c ****   /* USER CODE BEGIN USART1_IRQn 0 */
 282:Core/Src/stm32f4xx_it.c **** 
 283:Core/Src/stm32f4xx_it.c ****   /* USER CODE END USART1_IRQn 0 */
 284:Core/Src/stm32f4xx_it.c ****   HAL_UART_IRQHandler(&huart1);
 380              		.loc 1 284 3 view .LVU45
 381 0002 0248     		ldr	r0, .L35
 382 0004 FFF7FEFF 		bl	HAL_UART_IRQHandler
 383              	.LVL8:
 285:Core/Src/stm32f4xx_it.c ****   /* USER CODE BEGIN USART1_IRQn 1 */
 286:Core/Src/stm32f4xx_it.c **** 
 287:Core/Src/stm32f4xx_it.c ****   /* USER CODE END USART1_IRQn 1 */
 288:Core/Src/stm32f4xx_it.c **** }
 384              		.loc 1 288 1 is_stmt 0 view .LVU46
 385 0008 08BD     		pop	{r3, pc}
 386              	.L36:
 387 000a 00BF     		.align	2
 388              	.L35:
 389 000c 00000000 		.word	huart1
 390              		.cfi_endproc
 391              	.LFE252:
 393              		.section	.text.TIM8_TRG_COM_TIM14_IRQHandler,"ax",%progbits
 394              		.align	1
 395              		.global	TIM8_TRG_COM_TIM14_IRQHandler
 396              		.syntax unified
 397              		.thumb
 398              		.thumb_func
 400              	TIM8_TRG_COM_TIM14_IRQHandler:
 401              	.LFB253:
 289:Core/Src/stm32f4xx_it.c **** 
 290:Core/Src/stm32f4xx_it.c **** /**
 291:Core/Src/stm32f4xx_it.c ****   * @brief This function handles TIM8 trigger and commutation interrupts and TIM14 global interrupt
 292:Core/Src/stm32f4xx_it.c ****   */
 293:Core/Src/stm32f4xx_it.c **** void TIM8_TRG_COM_TIM14_IRQHandler(void)
 294:Core/Src/stm32f4xx_it.c **** {
 402              		.loc 1 294 1 is_stmt 1 view -0
 403              		.cfi_startproc
 404              		@ args = 0, pretend = 0, frame = 0
 405              		@ frame_needed = 0, uses_anonymous_args = 0
 406 0000 08B5     		push	{r3, lr}
 407              	.LCFI9:
 408              		.cfi_def_cfa_offset 8
 409              		.cfi_offset 3, -8
 410              		.cfi_offset 14, -4
 295:Core/Src/stm32f4xx_it.c ****   /* USER CODE BEGIN TIM8_TRG_COM_TIM14_IRQn 0 */
 296:Core/Src/stm32f4xx_it.c **** 
 297:Core/Src/stm32f4xx_it.c ****   /* USER CODE END TIM8_TRG_COM_TIM14_IRQn 0 */
 298:Core/Src/stm32f4xx_it.c ****   HAL_TIM_IRQHandler(&htim8);
ARM GAS  C:\Users\晚风\AppData\Local\Temp\cc1uTFbL.s 			page 13


 411              		.loc 1 298 3 view .LVU48
 412 0002 0348     		ldr	r0, .L39
 413 0004 FFF7FEFF 		bl	HAL_TIM_IRQHandler
 414              	.LVL9:
 299:Core/Src/stm32f4xx_it.c ****   HAL_TIM_IRQHandler(&htim14);
 415              		.loc 1 299 3 view .LVU49
 416 0008 0248     		ldr	r0, .L39+4
 417 000a FFF7FEFF 		bl	HAL_TIM_IRQHandler
 418              	.LVL10:
 300:Core/Src/stm32f4xx_it.c ****   /* USER CODE BEGIN TIM8_TRG_COM_TIM14_IRQn 1 */
 301:Core/Src/stm32f4xx_it.c **** 
 302:Core/Src/stm32f4xx_it.c ****   /* USER CODE END TIM8_TRG_COM_TIM14_IRQn 1 */
 303:Core/Src/stm32f4xx_it.c **** }
 419              		.loc 1 303 1 is_stmt 0 view .LVU50
 420 000e 08BD     		pop	{r3, pc}
 421              	.L40:
 422              		.align	2
 423              	.L39:
 424 0010 00000000 		.word	htim8
 425 0014 00000000 		.word	htim14
 426              		.cfi_endproc
 427              	.LFE253:
 429              		.section	.text.DMA1_Stream7_IRQHandler,"ax",%progbits
 430              		.align	1
 431              		.global	DMA1_Stream7_IRQHandler
 432              		.syntax unified
 433              		.thumb
 434              		.thumb_func
 436              	DMA1_Stream7_IRQHandler:
 437              	.LFB254:
 304:Core/Src/stm32f4xx_it.c **** 
 305:Core/Src/stm32f4xx_it.c **** /**
 306:Core/Src/stm32f4xx_it.c ****   * @brief This function handles DMA1 stream7 global interrupt.
 307:Core/Src/stm32f4xx_it.c ****   */
 308:Core/Src/stm32f4xx_it.c **** void DMA1_Stream7_IRQHandler(void)
 309:Core/Src/stm32f4xx_it.c **** {
 438              		.loc 1 309 1 is_stmt 1 view -0
 439              		.cfi_startproc
 440              		@ args = 0, pretend = 0, frame = 0
 441              		@ frame_needed = 0, uses_anonymous_args = 0
 442 0000 08B5     		push	{r3, lr}
 443              	.LCFI10:
 444              		.cfi_def_cfa_offset 8
 445              		.cfi_offset 3, -8
 446              		.cfi_offset 14, -4
 310:Core/Src/stm32f4xx_it.c ****   /* USER CODE BEGIN DMA1_Stream7_IRQn 0 */
 311:Core/Src/stm32f4xx_it.c **** 
 312:Core/Src/stm32f4xx_it.c ****   /* USER CODE END DMA1_Stream7_IRQn 0 */
 313:Core/Src/stm32f4xx_it.c ****   HAL_DMA_IRQHandler(&hdma_tim4_ch3);
 447              		.loc 1 313 3 view .LVU52
 448 0002 0248     		ldr	r0, .L43
 449 0004 FFF7FEFF 		bl	HAL_DMA_IRQHandler
 450              	.LVL11:
 314:Core/Src/stm32f4xx_it.c ****   /* USER CODE BEGIN DMA1_Stream7_IRQn 1 */
 315:Core/Src/stm32f4xx_it.c **** 
 316:Core/Src/stm32f4xx_it.c ****   /* USER CODE END DMA1_Stream7_IRQn 1 */
 317:Core/Src/stm32f4xx_it.c **** }
ARM GAS  C:\Users\晚风\AppData\Local\Temp\cc1uTFbL.s 			page 14


 451              		.loc 1 317 1 is_stmt 0 view .LVU53
 452 0008 08BD     		pop	{r3, pc}
 453              	.L44:
 454 000a 00BF     		.align	2
 455              	.L43:
 456 000c 00000000 		.word	hdma_tim4_ch3
 457              		.cfi_endproc
 458              	.LFE254:
 460              		.section	.text.DMA2_Stream0_IRQHandler,"ax",%progbits
 461              		.align	1
 462              		.global	DMA2_Stream0_IRQHandler
 463              		.syntax unified
 464              		.thumb
 465              		.thumb_func
 467              	DMA2_Stream0_IRQHandler:
 468              	.LFB255:
 318:Core/Src/stm32f4xx_it.c **** 
 319:Core/Src/stm32f4xx_it.c **** /**
 320:Core/Src/stm32f4xx_it.c ****   * @brief This function handles DMA2 stream0 global interrupt.
 321:Core/Src/stm32f4xx_it.c ****   */
 322:Core/Src/stm32f4xx_it.c **** void DMA2_Stream0_IRQHandler(void)
 323:Core/Src/stm32f4xx_it.c **** {
 469              		.loc 1 323 1 is_stmt 1 view -0
 470              		.cfi_startproc
 471              		@ args = 0, pretend = 0, frame = 0
 472              		@ frame_needed = 0, uses_anonymous_args = 0
 473 0000 08B5     		push	{r3, lr}
 474              	.LCFI11:
 475              		.cfi_def_cfa_offset 8
 476              		.cfi_offset 3, -8
 477              		.cfi_offset 14, -4
 324:Core/Src/stm32f4xx_it.c ****   /* USER CODE BEGIN DMA2_Stream0_IRQn 0 */
 325:Core/Src/stm32f4xx_it.c **** 
 326:Core/Src/stm32f4xx_it.c ****   /* USER CODE END DMA2_Stream0_IRQn 0 */
 327:Core/Src/stm32f4xx_it.c ****   HAL_DMA_IRQHandler(&hdma_adc3);
 478              		.loc 1 327 3 view .LVU55
 479 0002 0248     		ldr	r0, .L47
 480 0004 FFF7FEFF 		bl	HAL_DMA_IRQHandler
 481              	.LVL12:
 328:Core/Src/stm32f4xx_it.c ****   /* USER CODE BEGIN DMA2_Stream0_IRQn 1 */
 329:Core/Src/stm32f4xx_it.c **** 
 330:Core/Src/stm32f4xx_it.c ****   /* USER CODE END DMA2_Stream0_IRQn 1 */
 331:Core/Src/stm32f4xx_it.c **** }
 482              		.loc 1 331 1 is_stmt 0 view .LVU56
 483 0008 08BD     		pop	{r3, pc}
 484              	.L48:
 485 000a 00BF     		.align	2
 486              	.L47:
 487 000c 00000000 		.word	hdma_adc3
 488              		.cfi_endproc
 489              	.LFE255:
 491              		.section	.text.DMA2_Stream1_IRQHandler,"ax",%progbits
 492              		.align	1
 493              		.global	DMA2_Stream1_IRQHandler
 494              		.syntax unified
 495              		.thumb
 496              		.thumb_func
ARM GAS  C:\Users\晚风\AppData\Local\Temp\cc1uTFbL.s 			page 15


 498              	DMA2_Stream1_IRQHandler:
 499              	.LFB256:
 332:Core/Src/stm32f4xx_it.c **** 
 333:Core/Src/stm32f4xx_it.c **** /**
 334:Core/Src/stm32f4xx_it.c ****   * @brief This function handles DMA2 stream1 global interrupt.
 335:Core/Src/stm32f4xx_it.c ****   */
 336:Core/Src/stm32f4xx_it.c **** void DMA2_Stream1_IRQHandler(void)
 337:Core/Src/stm32f4xx_it.c **** {
 500              		.loc 1 337 1 is_stmt 1 view -0
 501              		.cfi_startproc
 502              		@ args = 0, pretend = 0, frame = 0
 503              		@ frame_needed = 0, uses_anonymous_args = 0
 504 0000 08B5     		push	{r3, lr}
 505              	.LCFI12:
 506              		.cfi_def_cfa_offset 8
 507              		.cfi_offset 3, -8
 508              		.cfi_offset 14, -4
 338:Core/Src/stm32f4xx_it.c ****   /* USER CODE BEGIN DMA2_Stream1_IRQn 0 */
 339:Core/Src/stm32f4xx_it.c **** 
 340:Core/Src/stm32f4xx_it.c ****   /* USER CODE END DMA2_Stream1_IRQn 0 */
 341:Core/Src/stm32f4xx_it.c ****   HAL_DMA_IRQHandler(&hdma_usart6_rx);
 509              		.loc 1 341 3 view .LVU58
 510 0002 0248     		ldr	r0, .L51
 511 0004 FFF7FEFF 		bl	HAL_DMA_IRQHandler
 512              	.LVL13:
 342:Core/Src/stm32f4xx_it.c ****   /* USER CODE BEGIN DMA2_Stream1_IRQn 1 */
 343:Core/Src/stm32f4xx_it.c **** 
 344:Core/Src/stm32f4xx_it.c ****   /* USER CODE END DMA2_Stream1_IRQn 1 */
 345:Core/Src/stm32f4xx_it.c **** }
 513              		.loc 1 345 1 is_stmt 0 view .LVU59
 514 0008 08BD     		pop	{r3, pc}
 515              	.L52:
 516 000a 00BF     		.align	2
 517              	.L51:
 518 000c 00000000 		.word	hdma_usart6_rx
 519              		.cfi_endproc
 520              	.LFE256:
 522              		.section	.text.DMA2_Stream2_IRQHandler,"ax",%progbits
 523              		.align	1
 524              		.global	DMA2_Stream2_IRQHandler
 525              		.syntax unified
 526              		.thumb
 527              		.thumb_func
 529              	DMA2_Stream2_IRQHandler:
 530              	.LFB257:
 346:Core/Src/stm32f4xx_it.c **** 
 347:Core/Src/stm32f4xx_it.c **** /**
 348:Core/Src/stm32f4xx_it.c ****   * @brief This function handles DMA2 stream2 global interrupt.
 349:Core/Src/stm32f4xx_it.c ****   */
 350:Core/Src/stm32f4xx_it.c **** void DMA2_Stream2_IRQHandler(void)
 351:Core/Src/stm32f4xx_it.c **** {
 531              		.loc 1 351 1 is_stmt 1 view -0
 532              		.cfi_startproc
 533              		@ args = 0, pretend = 0, frame = 0
 534              		@ frame_needed = 0, uses_anonymous_args = 0
 535 0000 08B5     		push	{r3, lr}
 536              	.LCFI13:
ARM GAS  C:\Users\晚风\AppData\Local\Temp\cc1uTFbL.s 			page 16


 537              		.cfi_def_cfa_offset 8
 538              		.cfi_offset 3, -8
 539              		.cfi_offset 14, -4
 352:Core/Src/stm32f4xx_it.c ****   /* USER CODE BEGIN DMA2_Stream2_IRQn 0 */
 353:Core/Src/stm32f4xx_it.c **** 
 354:Core/Src/stm32f4xx_it.c ****   /* USER CODE END DMA2_Stream2_IRQn 0 */
 355:Core/Src/stm32f4xx_it.c ****   HAL_DMA_IRQHandler(&hdma_spi1_rx);
 540              		.loc 1 355 3 view .LVU61
 541 0002 0248     		ldr	r0, .L55
 542 0004 FFF7FEFF 		bl	HAL_DMA_IRQHandler
 543              	.LVL14:
 356:Core/Src/stm32f4xx_it.c ****   /* USER CODE BEGIN DMA2_Stream2_IRQn 1 */
 357:Core/Src/stm32f4xx_it.c **** 
 358:Core/Src/stm32f4xx_it.c ****   /* USER CODE END DMA2_Stream2_IRQn 1 */
 359:Core/Src/stm32f4xx_it.c **** }
 544              		.loc 1 359 1 is_stmt 0 view .LVU62
 545 0008 08BD     		pop	{r3, pc}
 546              	.L56:
 547 000a 00BF     		.align	2
 548              	.L55:
 549 000c 00000000 		.word	hdma_spi1_rx
 550              		.cfi_endproc
 551              	.LFE257:
 553              		.section	.text.DMA2_Stream3_IRQHandler,"ax",%progbits
 554              		.align	1
 555              		.global	DMA2_Stream3_IRQHandler
 556              		.syntax unified
 557              		.thumb
 558              		.thumb_func
 560              	DMA2_Stream3_IRQHandler:
 561              	.LFB258:
 360:Core/Src/stm32f4xx_it.c **** 
 361:Core/Src/stm32f4xx_it.c **** /**
 362:Core/Src/stm32f4xx_it.c ****   * @brief This function handles DMA2 stream3 global interrupt.
 363:Core/Src/stm32f4xx_it.c ****   */
 364:Core/Src/stm32f4xx_it.c **** void DMA2_Stream3_IRQHandler(void)
 365:Core/Src/stm32f4xx_it.c **** {
 562              		.loc 1 365 1 is_stmt 1 view -0
 563              		.cfi_startproc
 564              		@ args = 0, pretend = 0, frame = 0
 565              		@ frame_needed = 0, uses_anonymous_args = 0
 566 0000 08B5     		push	{r3, lr}
 567              	.LCFI14:
 568              		.cfi_def_cfa_offset 8
 569              		.cfi_offset 3, -8
 570              		.cfi_offset 14, -4
 366:Core/Src/stm32f4xx_it.c ****   /* USER CODE BEGIN DMA2_Stream3_IRQn 0 */
 367:Core/Src/stm32f4xx_it.c **** 
 368:Core/Src/stm32f4xx_it.c ****   /* USER CODE END DMA2_Stream3_IRQn 0 */
 369:Core/Src/stm32f4xx_it.c ****   HAL_DMA_IRQHandler(&hdma_spi1_tx);
 571              		.loc 1 369 3 view .LVU64
 572 0002 0248     		ldr	r0, .L59
 573 0004 FFF7FEFF 		bl	HAL_DMA_IRQHandler
 574              	.LVL15:
 370:Core/Src/stm32f4xx_it.c ****   /* USER CODE BEGIN DMA2_Stream3_IRQn 1 */
 371:Core/Src/stm32f4xx_it.c **** 
 372:Core/Src/stm32f4xx_it.c ****   /* USER CODE END DMA2_Stream3_IRQn 1 */
ARM GAS  C:\Users\晚风\AppData\Local\Temp\cc1uTFbL.s 			page 17


 373:Core/Src/stm32f4xx_it.c **** }
 575              		.loc 1 373 1 is_stmt 0 view .LVU65
 576 0008 08BD     		pop	{r3, pc}
 577              	.L60:
 578 000a 00BF     		.align	2
 579              	.L59:
 580 000c 00000000 		.word	hdma_spi1_tx
 581              		.cfi_endproc
 582              	.LFE258:
 584              		.section	.text.OTG_FS_IRQHandler,"ax",%progbits
 585              		.align	1
 586              		.global	OTG_FS_IRQHandler
 587              		.syntax unified
 588              		.thumb
 589              		.thumb_func
 591              	OTG_FS_IRQHandler:
 592              	.LFB259:
 374:Core/Src/stm32f4xx_it.c **** 
 375:Core/Src/stm32f4xx_it.c **** /**
 376:Core/Src/stm32f4xx_it.c ****   * @brief This function handles USB On The Go FS global interrupt.
 377:Core/Src/stm32f4xx_it.c ****   */
 378:Core/Src/stm32f4xx_it.c **** void OTG_FS_IRQHandler(void)
 379:Core/Src/stm32f4xx_it.c **** {
 593              		.loc 1 379 1 is_stmt 1 view -0
 594              		.cfi_startproc
 595              		@ args = 0, pretend = 0, frame = 0
 596              		@ frame_needed = 0, uses_anonymous_args = 0
 597 0000 08B5     		push	{r3, lr}
 598              	.LCFI15:
 599              		.cfi_def_cfa_offset 8
 600              		.cfi_offset 3, -8
 601              		.cfi_offset 14, -4
 380:Core/Src/stm32f4xx_it.c ****   /* USER CODE BEGIN OTG_FS_IRQn 0 */
 381:Core/Src/stm32f4xx_it.c **** 
 382:Core/Src/stm32f4xx_it.c ****   /* USER CODE END OTG_FS_IRQn 0 */
 383:Core/Src/stm32f4xx_it.c ****   HAL_PCD_IRQHandler(&hpcd_USB_OTG_FS);
 602              		.loc 1 383 3 view .LVU67
 603 0002 0248     		ldr	r0, .L63
 604 0004 FFF7FEFF 		bl	HAL_PCD_IRQHandler
 605              	.LVL16:
 384:Core/Src/stm32f4xx_it.c ****   /* USER CODE BEGIN OTG_FS_IRQn 1 */
 385:Core/Src/stm32f4xx_it.c **** 
 386:Core/Src/stm32f4xx_it.c ****   /* USER CODE END OTG_FS_IRQn 1 */
 387:Core/Src/stm32f4xx_it.c **** }
 606              		.loc 1 387 1 is_stmt 0 view .LVU68
 607 0008 08BD     		pop	{r3, pc}
 608              	.L64:
 609 000a 00BF     		.align	2
 610              	.L63:
 611 000c 00000000 		.word	hpcd_USB_OTG_FS
 612              		.cfi_endproc
 613              	.LFE259:
 615              		.section	.text.DMA2_Stream5_IRQHandler,"ax",%progbits
 616              		.align	1
 617              		.global	DMA2_Stream5_IRQHandler
 618              		.syntax unified
 619              		.thumb
ARM GAS  C:\Users\晚风\AppData\Local\Temp\cc1uTFbL.s 			page 18


 620              		.thumb_func
 622              	DMA2_Stream5_IRQHandler:
 623              	.LFB260:
 388:Core/Src/stm32f4xx_it.c **** 
 389:Core/Src/stm32f4xx_it.c **** /**
 390:Core/Src/stm32f4xx_it.c ****   * @brief This function handles DMA2 stream5 global interrupt.
 391:Core/Src/stm32f4xx_it.c ****   */
 392:Core/Src/stm32f4xx_it.c **** void DMA2_Stream5_IRQHandler(void)
 393:Core/Src/stm32f4xx_it.c **** {
 624              		.loc 1 393 1 is_stmt 1 view -0
 625              		.cfi_startproc
 626              		@ args = 0, pretend = 0, frame = 0
 627              		@ frame_needed = 0, uses_anonymous_args = 0
 628 0000 08B5     		push	{r3, lr}
 629              	.LCFI16:
 630              		.cfi_def_cfa_offset 8
 631              		.cfi_offset 3, -8
 632              		.cfi_offset 14, -4
 394:Core/Src/stm32f4xx_it.c ****   /* USER CODE BEGIN DMA2_Stream5_IRQn 0 */
 395:Core/Src/stm32f4xx_it.c **** 
 396:Core/Src/stm32f4xx_it.c ****   /* USER CODE END DMA2_Stream5_IRQn 0 */
 397:Core/Src/stm32f4xx_it.c ****   HAL_DMA_IRQHandler(&hdma_usart1_rx);
 633              		.loc 1 397 3 view .LVU70
 634 0002 0248     		ldr	r0, .L67
 635 0004 FFF7FEFF 		bl	HAL_DMA_IRQHandler
 636              	.LVL17:
 398:Core/Src/stm32f4xx_it.c ****   /* USER CODE BEGIN DMA2_Stream5_IRQn 1 */
 399:Core/Src/stm32f4xx_it.c **** 
 400:Core/Src/stm32f4xx_it.c ****   /* USER CODE END DMA2_Stream5_IRQn 1 */
 401:Core/Src/stm32f4xx_it.c **** }
 637              		.loc 1 401 1 is_stmt 0 view .LVU71
 638 0008 08BD     		pop	{r3, pc}
 639              	.L68:
 640 000a 00BF     		.align	2
 641              	.L67:
 642 000c 00000000 		.word	hdma_usart1_rx
 643              		.cfi_endproc
 644              	.LFE260:
 646              		.section	.text.DMA2_Stream6_IRQHandler,"ax",%progbits
 647              		.align	1
 648              		.global	DMA2_Stream6_IRQHandler
 649              		.syntax unified
 650              		.thumb
 651              		.thumb_func
 653              	DMA2_Stream6_IRQHandler:
 654              	.LFB261:
 402:Core/Src/stm32f4xx_it.c **** 
 403:Core/Src/stm32f4xx_it.c **** /**
 404:Core/Src/stm32f4xx_it.c ****   * @brief This function handles DMA2 stream6 global interrupt.
 405:Core/Src/stm32f4xx_it.c ****   */
 406:Core/Src/stm32f4xx_it.c **** void DMA2_Stream6_IRQHandler(void)
 407:Core/Src/stm32f4xx_it.c **** {
 655              		.loc 1 407 1 is_stmt 1 view -0
 656              		.cfi_startproc
 657              		@ args = 0, pretend = 0, frame = 0
 658              		@ frame_needed = 0, uses_anonymous_args = 0
 659 0000 08B5     		push	{r3, lr}
ARM GAS  C:\Users\晚风\AppData\Local\Temp\cc1uTFbL.s 			page 19


 660              	.LCFI17:
 661              		.cfi_def_cfa_offset 8
 662              		.cfi_offset 3, -8
 663              		.cfi_offset 14, -4
 408:Core/Src/stm32f4xx_it.c ****   /* USER CODE BEGIN DMA2_Stream6_IRQn 0 */
 409:Core/Src/stm32f4xx_it.c **** 
 410:Core/Src/stm32f4xx_it.c ****   /* USER CODE END DMA2_Stream6_IRQn 0 */
 411:Core/Src/stm32f4xx_it.c ****   HAL_DMA_IRQHandler(&hdma_usart6_tx);
 664              		.loc 1 411 3 view .LVU73
 665 0002 0248     		ldr	r0, .L71
 666 0004 FFF7FEFF 		bl	HAL_DMA_IRQHandler
 667              	.LVL18:
 412:Core/Src/stm32f4xx_it.c ****   /* USER CODE BEGIN DMA2_Stream6_IRQn 1 */
 413:Core/Src/stm32f4xx_it.c **** 
 414:Core/Src/stm32f4xx_it.c ****   /* USER CODE END DMA2_Stream6_IRQn 1 */
 415:Core/Src/stm32f4xx_it.c **** }
 668              		.loc 1 415 1 is_stmt 0 view .LVU74
 669 0008 08BD     		pop	{r3, pc}
 670              	.L72:
 671 000a 00BF     		.align	2
 672              	.L71:
 673 000c 00000000 		.word	hdma_usart6_tx
 674              		.cfi_endproc
 675              	.LFE261:
 677              		.section	.text.DMA2_Stream7_IRQHandler,"ax",%progbits
 678              		.align	1
 679              		.global	DMA2_Stream7_IRQHandler
 680              		.syntax unified
 681              		.thumb
 682              		.thumb_func
 684              	DMA2_Stream7_IRQHandler:
 685              	.LFB262:
 416:Core/Src/stm32f4xx_it.c **** 
 417:Core/Src/stm32f4xx_it.c **** /**
 418:Core/Src/stm32f4xx_it.c ****   * @brief This function handles DMA2 stream7 global interrupt.
 419:Core/Src/stm32f4xx_it.c ****   */
 420:Core/Src/stm32f4xx_it.c **** void DMA2_Stream7_IRQHandler(void)
 421:Core/Src/stm32f4xx_it.c **** {
 686              		.loc 1 421 1 is_stmt 1 view -0
 687              		.cfi_startproc
 688              		@ args = 0, pretend = 0, frame = 0
 689              		@ frame_needed = 0, uses_anonymous_args = 0
 690 0000 08B5     		push	{r3, lr}
 691              	.LCFI18:
 692              		.cfi_def_cfa_offset 8
 693              		.cfi_offset 3, -8
 694              		.cfi_offset 14, -4
 422:Core/Src/stm32f4xx_it.c ****   /* USER CODE BEGIN DMA2_Stream7_IRQn 0 */
 423:Core/Src/stm32f4xx_it.c **** 
 424:Core/Src/stm32f4xx_it.c ****   /* USER CODE END DMA2_Stream7_IRQn 0 */
 425:Core/Src/stm32f4xx_it.c ****   HAL_DMA_IRQHandler(&hdma_usart1_tx);
 695              		.loc 1 425 3 view .LVU76
 696 0002 0248     		ldr	r0, .L75
 697 0004 FFF7FEFF 		bl	HAL_DMA_IRQHandler
 698              	.LVL19:
 426:Core/Src/stm32f4xx_it.c ****   /* USER CODE BEGIN DMA2_Stream7_IRQn 1 */
 427:Core/Src/stm32f4xx_it.c **** 
ARM GAS  C:\Users\晚风\AppData\Local\Temp\cc1uTFbL.s 			page 20


 428:Core/Src/stm32f4xx_it.c ****   /* USER CODE END DMA2_Stream7_IRQn 1 */
 429:Core/Src/stm32f4xx_it.c **** }
 699              		.loc 1 429 1 is_stmt 0 view .LVU77
 700 0008 08BD     		pop	{r3, pc}
 701              	.L76:
 702 000a 00BF     		.align	2
 703              	.L75:
 704 000c 00000000 		.word	hdma_usart1_tx
 705              		.cfi_endproc
 706              	.LFE262:
 708              		.section	.text.USART6_IRQHandler,"ax",%progbits
 709              		.align	1
 710              		.global	USART6_IRQHandler
 711              		.syntax unified
 712              		.thumb
 713              		.thumb_func
 715              	USART6_IRQHandler:
 716              	.LFB263:
 430:Core/Src/stm32f4xx_it.c **** 
 431:Core/Src/stm32f4xx_it.c **** /**
 432:Core/Src/stm32f4xx_it.c ****   * @brief This function handles USART6 global interrupt.
 433:Core/Src/stm32f4xx_it.c ****   */
 434:Core/Src/stm32f4xx_it.c **** void USART6_IRQHandler(void)
 435:Core/Src/stm32f4xx_it.c **** {
 717              		.loc 1 435 1 is_stmt 1 view -0
 718              		.cfi_startproc
 719              		@ args = 0, pretend = 0, frame = 0
 720              		@ frame_needed = 0, uses_anonymous_args = 0
 721 0000 08B5     		push	{r3, lr}
 722              	.LCFI19:
 723              		.cfi_def_cfa_offset 8
 724              		.cfi_offset 3, -8
 725              		.cfi_offset 14, -4
 436:Core/Src/stm32f4xx_it.c ****   /* USER CODE BEGIN USART6_IRQn 0 */
 437:Core/Src/stm32f4xx_it.c **** 
 438:Core/Src/stm32f4xx_it.c ****   /* USER CODE END USART6_IRQn 0 */
 439:Core/Src/stm32f4xx_it.c ****   HAL_UART_IRQHandler(&huart6);
 726              		.loc 1 439 3 view .LVU79
 727 0002 0248     		ldr	r0, .L79
 728 0004 FFF7FEFF 		bl	HAL_UART_IRQHandler
 729              	.LVL20:
 440:Core/Src/stm32f4xx_it.c ****   /* USER CODE BEGIN USART6_IRQn 1 */
 441:Core/Src/stm32f4xx_it.c **** 
 442:Core/Src/stm32f4xx_it.c ****   /* USER CODE END USART6_IRQn 1 */
 443:Core/Src/stm32f4xx_it.c **** }
 730              		.loc 1 443 1 is_stmt 0 view .LVU80
 731 0008 08BD     		pop	{r3, pc}
 732              	.L80:
 733 000a 00BF     		.align	2
 734              	.L79:
 735 000c 00000000 		.word	huart6
 736              		.cfi_endproc
 737              	.LFE263:
 739              		.text
 740              	.Letext0:
 741              		.file 2 "D:/Applications/arm-gnu-toolchain-13.2.Rel1-mingw-w64-i686-arm-none-eabi/arm-none-eabi/in
 742              		.file 3 "D:/Applications/arm-gnu-toolchain-13.2.Rel1-mingw-w64-i686-arm-none-eabi/arm-none-eabi/in
ARM GAS  C:\Users\晚风\AppData\Local\Temp\cc1uTFbL.s 			page 21


 743              		.file 4 "Drivers/CMSIS/Device/ST/STM32F4xx/Include/stm32f407xx.h"
 744              		.file 5 "Drivers/STM32F4xx_HAL_Driver/Inc/stm32f4xx_hal_def.h"
 745              		.file 6 "Drivers/STM32F4xx_HAL_Driver/Inc/stm32f4xx_hal_dma.h"
 746              		.file 7 "Drivers/STM32F4xx_HAL_Driver/Inc/stm32f4xx_hal_tim.h"
 747              		.file 8 "Drivers/STM32F4xx_HAL_Driver/Inc/stm32f4xx_hal_uart.h"
 748              		.file 9 "Drivers/STM32F4xx_HAL_Driver/Inc/stm32f4xx_ll_usb.h"
 749              		.file 10 "Drivers/STM32F4xx_HAL_Driver/Inc/stm32f4xx_hal_pcd.h"
 750              		.file 11 "Drivers/STM32F4xx_HAL_Driver/Inc/stm32f4xx_hal_gpio.h"
 751              		.file 12 "Drivers/STM32F4xx_HAL_Driver/Inc/stm32f4xx_hal_rcc.h"
ARM GAS  C:\Users\晚风\AppData\Local\Temp\cc1uTFbL.s 			page 22

